
build/kernel:     file format elf64-littleriscv


Disassembly of section .text:

0000000080200000 <_entry>:
    .section .text.entry
    .globl _entry
_entry:
    la sp, boot_stack_top
    80200000:	0001a117          	auipc	sp,0x1a
    80200004:	00010113          	mv	sp,sp
    call main
    80200008:	599000ef          	jal	ra,80200da0 <main>

000000008020000c <init_queue>:
#include "defs.h"

int process_queue_data[QUEUE_SIZE];

void init_queue(struct queue *q, int size, int *data)
{
    8020000c:	1141                	addi	sp,sp,-16
    8020000e:	e422                	sd	s0,8(sp)
    80200010:	0800                	addi	s0,sp,16
	q->size = size;
    80200012:	c50c                	sw	a1,8(a0)
	q->data = data;
    80200014:	e110                	sd	a2,0(a0)
	q->front = q->tail = 0;
    80200016:	00052823          	sw	zero,16(a0)
    8020001a:	00052623          	sw	zero,12(a0)
	q->empty = 1;
    8020001e:	4785                	li	a5,1
    80200020:	c95c                	sw	a5,20(a0)
}
    80200022:	6422                	ld	s0,8(sp)
    80200024:	0141                	addi	sp,sp,16
    80200026:	8082                	ret

0000000080200028 <push_queue>:

void push_queue(struct queue *q, int value)
{
	if (!q->empty && q->front == q->tail) {
    80200028:	495c                	lw	a5,20(a0)
    8020002a:	e789                	bnez	a5,80200034 <push_queue+0xc>
    8020002c:	4558                	lw	a4,12(a0)
    8020002e:	491c                	lw	a5,16(a0)
    80200030:	02f70063          	beq	a4,a5,80200050 <push_queue+0x28>
		panic("queue shouldn't be overflow");
	}
	q->empty = 0;
    80200034:	00052a23          	sw	zero,20(a0)
	q->data[q->tail] = value;
    80200038:	4918                	lw	a4,16(a0)
    8020003a:	611c                	ld	a5,0(a0)
    8020003c:	070a                	slli	a4,a4,0x2
    8020003e:	97ba                	add	a5,a5,a4
    80200040:	c38c                	sw	a1,0(a5)
	q->tail = (q->tail + 1) % q->size;
    80200042:	491c                	lw	a5,16(a0)
    80200044:	2785                	addiw	a5,a5,1
    80200046:	4518                	lw	a4,8(a0)
    80200048:	02e7e7bb          	remw	a5,a5,a4
    8020004c:	c91c                	sw	a5,16(a0)
    8020004e:	8082                	ret
{
    80200050:	1101                	addi	sp,sp,-32
    80200052:	ec06                	sd	ra,24(sp)
    80200054:	e822                	sd	s0,16(sp)
    80200056:	e426                	sd	s1,8(sp)
    80200058:	1000                	addi	s0,sp,32
		panic("queue shouldn't be overflow");
    8020005a:	00004097          	auipc	ra,0x4
    8020005e:	344080e7          	jalr	836(ra) # 8020439e <procid>
    80200062:	84aa                	mv	s1,a0
    80200064:	00004097          	auipc	ra,0x4
    80200068:	354080e7          	jalr	852(ra) # 802043b8 <threadid>
    8020006c:	4845                	li	a6,17
    8020006e:	00008797          	auipc	a5,0x8
    80200072:	f9278793          	addi	a5,a5,-110 # 80208000 <e_text>
    80200076:	872a                	mv	a4,a0
    80200078:	86a6                	mv	a3,s1
    8020007a:	00008617          	auipc	a2,0x8
    8020007e:	f9660613          	addi	a2,a2,-106 # 80208010 <e_text+0x10>
    80200082:	45fd                	li	a1,31
    80200084:	00008517          	auipc	a0,0x8
    80200088:	f9450513          	addi	a0,a0,-108 # 80208018 <e_text+0x18>
    8020008c:	00003097          	auipc	ra,0x3
    80200090:	03a080e7          	jalr	58(ra) # 802030c6 <printf>
    80200094:	00003097          	auipc	ra,0x3
    80200098:	24a080e7          	jalr	586(ra) # 802032de <shutdown>

000000008020009c <pop_queue>:
}

int pop_queue(struct queue *q)
{
    8020009c:	1141                	addi	sp,sp,-16
    8020009e:	e422                	sd	s0,8(sp)
    802000a0:	0800                	addi	s0,sp,16
	if (q->empty)
    802000a2:	495c                	lw	a5,20(a0)
    802000a4:	eb85                	bnez	a5,802000d4 <pop_queue+0x38>
    802000a6:	872a                	mv	a4,a0
		return -1;
	int value = q->data[q->front];
    802000a8:	455c                	lw	a5,12(a0)
    802000aa:	6114                	ld	a3,0(a0)
    802000ac:	00279613          	slli	a2,a5,0x2
    802000b0:	96b2                	add	a3,a3,a2
    802000b2:	4288                	lw	a0,0(a3)
	q->front = (q->front + 1) % q->size;
    802000b4:	2785                	addiw	a5,a5,1
    802000b6:	4714                	lw	a3,8(a4)
    802000b8:	02d7e7bb          	remw	a5,a5,a3
    802000bc:	0007869b          	sext.w	a3,a5
    802000c0:	c75c                	sw	a5,12(a4)
	if (q->front == q->tail)
    802000c2:	4b1c                	lw	a5,16(a4)
    802000c4:	00d78563          	beq	a5,a3,802000ce <pop_queue+0x32>
		q->empty = 1;
	return value;
}
    802000c8:	6422                	ld	s0,8(sp)
    802000ca:	0141                	addi	sp,sp,16
    802000cc:	8082                	ret
		q->empty = 1;
    802000ce:	4785                	li	a5,1
    802000d0:	cb5c                	sw	a5,20(a4)
    802000d2:	bfdd                	j	802000c8 <pop_queue+0x2c>
		return -1;
    802000d4:	557d                	li	a0,-1
    802000d6:	bfcd                	j	802000c8 <pop_queue+0x2c>

00000000802000d8 <memset>:
#include "string.h"
#include "types.h"

void *memset(void *dst, int c, uint n)
{
    802000d8:	1141                	addi	sp,sp,-16
    802000da:	e422                	sd	s0,8(sp)
    802000dc:	0800                	addi	s0,sp,16
	char *cdst = (char *)dst;
	int i;
	for (i = 0; i < n; i++) {
    802000de:	ce09                	beqz	a2,802000f8 <memset+0x20>
    802000e0:	87aa                	mv	a5,a0
    802000e2:	fff6071b          	addiw	a4,a2,-1
    802000e6:	1702                	slli	a4,a4,0x20
    802000e8:	9301                	srli	a4,a4,0x20
    802000ea:	0705                	addi	a4,a4,1
    802000ec:	972a                	add	a4,a4,a0
		cdst[i] = c;
    802000ee:	00b78023          	sb	a1,0(a5)
    802000f2:	0785                	addi	a5,a5,1
	for (i = 0; i < n; i++) {
    802000f4:	fee79de3          	bne	a5,a4,802000ee <memset+0x16>
	}
	return dst;
}
    802000f8:	6422                	ld	s0,8(sp)
    802000fa:	0141                	addi	sp,sp,16
    802000fc:	8082                	ret

00000000802000fe <memcmp>:

int memcmp(const void *v1, const void *v2, uint n)
{
    802000fe:	1141                	addi	sp,sp,-16
    80200100:	e422                	sd	s0,8(sp)
    80200102:	0800                	addi	s0,sp,16
	const uchar *s1, *s2;

	s1 = v1;
	s2 = v2;
	while (n-- > 0) {
    80200104:	ce15                	beqz	a2,80200140 <memcmp+0x42>
    80200106:	fff6069b          	addiw	a3,a2,-1
		if (*s1 != *s2)
    8020010a:	00054783          	lbu	a5,0(a0)
    8020010e:	0005c703          	lbu	a4,0(a1)
    80200112:	02e79063          	bne	a5,a4,80200132 <memcmp+0x34>
    80200116:	1682                	slli	a3,a3,0x20
    80200118:	9281                	srli	a3,a3,0x20
    8020011a:	0685                	addi	a3,a3,1
    8020011c:	96aa                	add	a3,a3,a0
			return *s1 - *s2;
		s1++, s2++;
    8020011e:	0505                	addi	a0,a0,1
    80200120:	0585                	addi	a1,a1,1
	while (n-- > 0) {
    80200122:	00d50d63          	beq	a0,a3,8020013c <memcmp+0x3e>
		if (*s1 != *s2)
    80200126:	00054783          	lbu	a5,0(a0)
    8020012a:	0005c703          	lbu	a4,0(a1)
    8020012e:	fee788e3          	beq	a5,a4,8020011e <memcmp+0x20>
			return *s1 - *s2;
    80200132:	40e7853b          	subw	a0,a5,a4
	}

	return 0;
}
    80200136:	6422                	ld	s0,8(sp)
    80200138:	0141                	addi	sp,sp,16
    8020013a:	8082                	ret
	return 0;
    8020013c:	4501                	li	a0,0
    8020013e:	bfe5                	j	80200136 <memcmp+0x38>
    80200140:	4501                	li	a0,0
    80200142:	bfd5                	j	80200136 <memcmp+0x38>

0000000080200144 <memmove>:

void *memmove(void *dst, const void *src, uint n)
{
    80200144:	1141                	addi	sp,sp,-16
    80200146:	e422                	sd	s0,8(sp)
    80200148:	0800                	addi	s0,sp,16
	const char *s;
	char *d;

	s = src;
	d = dst;
	if (s < d && s + n > d) {
    8020014a:	02a5e563          	bltu	a1,a0,80200174 <memmove+0x30>
		s += n;
		d += n;
		while (n-- > 0)
			*--d = *--s;
	} else
		while (n-- > 0)
    8020014e:	fff6069b          	addiw	a3,a2,-1
    80200152:	ce11                	beqz	a2,8020016e <memmove+0x2a>
    80200154:	1682                	slli	a3,a3,0x20
    80200156:	9281                	srli	a3,a3,0x20
    80200158:	0685                	addi	a3,a3,1
    8020015a:	96ae                	add	a3,a3,a1
    8020015c:	87aa                	mv	a5,a0
			*d++ = *s++;
    8020015e:	0585                	addi	a1,a1,1
    80200160:	0785                	addi	a5,a5,1
    80200162:	fff5c703          	lbu	a4,-1(a1)
    80200166:	fee78fa3          	sb	a4,-1(a5)
		while (n-- > 0)
    8020016a:	fed59ae3          	bne	a1,a3,8020015e <memmove+0x1a>

	return dst;
}
    8020016e:	6422                	ld	s0,8(sp)
    80200170:	0141                	addi	sp,sp,16
    80200172:	8082                	ret
	if (s < d && s + n > d) {
    80200174:	02061713          	slli	a4,a2,0x20
    80200178:	9301                	srli	a4,a4,0x20
    8020017a:	00e587b3          	add	a5,a1,a4
    8020017e:	fcf578e3          	bgeu	a0,a5,8020014e <memmove+0xa>
		d += n;
    80200182:	972a                	add	a4,a4,a0
		while (n-- > 0)
    80200184:	fff6069b          	addiw	a3,a2,-1
    80200188:	d27d                	beqz	a2,8020016e <memmove+0x2a>
    8020018a:	02069613          	slli	a2,a3,0x20
    8020018e:	9201                	srli	a2,a2,0x20
    80200190:	fff64613          	not	a2,a2
    80200194:	963e                	add	a2,a2,a5
			*--d = *--s;
    80200196:	17fd                	addi	a5,a5,-1
    80200198:	177d                	addi	a4,a4,-1
    8020019a:	0007c683          	lbu	a3,0(a5)
    8020019e:	00d70023          	sb	a3,0(a4)
		while (n-- > 0)
    802001a2:	fef61ae3          	bne	a2,a5,80200196 <memmove+0x52>
    802001a6:	b7e1                	j	8020016e <memmove+0x2a>

00000000802001a8 <memcpy>:

// memcpy exists to placate GCC.  Use memmove.
void *memcpy(void *dst, const void *src, uint n)
{
    802001a8:	1141                	addi	sp,sp,-16
    802001aa:	e406                	sd	ra,8(sp)
    802001ac:	e022                	sd	s0,0(sp)
    802001ae:	0800                	addi	s0,sp,16
	return memmove(dst, src, n);
    802001b0:	00000097          	auipc	ra,0x0
    802001b4:	f94080e7          	jalr	-108(ra) # 80200144 <memmove>
}
    802001b8:	60a2                	ld	ra,8(sp)
    802001ba:	6402                	ld	s0,0(sp)
    802001bc:	0141                	addi	sp,sp,16
    802001be:	8082                	ret

00000000802001c0 <strncmp>:

int strncmp(const char *p, const char *q, uint n)
{
    802001c0:	1141                	addi	sp,sp,-16
    802001c2:	e422                	sd	s0,8(sp)
    802001c4:	0800                	addi	s0,sp,16
	while (n > 0 && *p && *p == *q)
    802001c6:	c229                	beqz	a2,80200208 <strncmp+0x48>
    802001c8:	00054783          	lbu	a5,0(a0)
    802001cc:	c795                	beqz	a5,802001f8 <strncmp+0x38>
    802001ce:	0005c703          	lbu	a4,0(a1)
    802001d2:	02f71363          	bne	a4,a5,802001f8 <strncmp+0x38>
    802001d6:	fff6071b          	addiw	a4,a2,-1
    802001da:	1702                	slli	a4,a4,0x20
    802001dc:	9301                	srli	a4,a4,0x20
    802001de:	0705                	addi	a4,a4,1
    802001e0:	972a                	add	a4,a4,a0
		n--, p++, q++;
    802001e2:	0505                	addi	a0,a0,1
    802001e4:	0585                	addi	a1,a1,1
	while (n > 0 && *p && *p == *q)
    802001e6:	02e50363          	beq	a0,a4,8020020c <strncmp+0x4c>
    802001ea:	00054783          	lbu	a5,0(a0)
    802001ee:	c789                	beqz	a5,802001f8 <strncmp+0x38>
    802001f0:	0005c683          	lbu	a3,0(a1)
    802001f4:	fef687e3          	beq	a3,a5,802001e2 <strncmp+0x22>
	if (n == 0)
		return 0;
	return (uchar)*p - (uchar)*q;
    802001f8:	00054503          	lbu	a0,0(a0)
    802001fc:	0005c783          	lbu	a5,0(a1)
    80200200:	9d1d                	subw	a0,a0,a5
}
    80200202:	6422                	ld	s0,8(sp)
    80200204:	0141                	addi	sp,sp,16
    80200206:	8082                	ret
		return 0;
    80200208:	4501                	li	a0,0
    8020020a:	bfe5                	j	80200202 <strncmp+0x42>
    8020020c:	4501                	li	a0,0
    8020020e:	bfd5                	j	80200202 <strncmp+0x42>

0000000080200210 <strncpy>:

char *strncpy(char *s, const char *t, int n)
{
    80200210:	1141                	addi	sp,sp,-16
    80200212:	e422                	sd	s0,8(sp)
    80200214:	0800                	addi	s0,sp,16
	char *os;

	os = s;
	while (n-- > 0 && (*s++ = *t++) != 0)
    80200216:	872a                	mv	a4,a0
    80200218:	a011                	j	8020021c <strncpy+0xc>
    8020021a:	8642                	mv	a2,a6
    8020021c:	fff6081b          	addiw	a6,a2,-1
    80200220:	00c05963          	blez	a2,80200232 <strncpy+0x22>
    80200224:	0705                	addi	a4,a4,1
    80200226:	0005c783          	lbu	a5,0(a1)
    8020022a:	fef70fa3          	sb	a5,-1(a4)
    8020022e:	0585                	addi	a1,a1,1
    80200230:	f7ed                	bnez	a5,8020021a <strncpy+0xa>
		;
	while (n-- > 0)
    80200232:	86ba                	mv	a3,a4
    80200234:	01005b63          	blez	a6,8020024a <strncpy+0x3a>
		*s++ = 0;
    80200238:	0685                	addi	a3,a3,1
    8020023a:	fe068fa3          	sb	zero,-1(a3)
    8020023e:	fff6c793          	not	a5,a3
    80200242:	9fb9                	addw	a5,a5,a4
	while (n-- > 0)
    80200244:	9fb1                	addw	a5,a5,a2
    80200246:	fef049e3          	bgtz	a5,80200238 <strncpy+0x28>
	return os;
}
    8020024a:	6422                	ld	s0,8(sp)
    8020024c:	0141                	addi	sp,sp,16
    8020024e:	8082                	ret

0000000080200250 <safestrcpy>:

// Like strncpy but guaranteed to NUL-terminate.
char *safestrcpy(char *s, const char *t, int n)
{
    80200250:	1141                	addi	sp,sp,-16
    80200252:	e422                	sd	s0,8(sp)
    80200254:	0800                	addi	s0,sp,16
	char *os;

	os = s;
	if (n <= 0)
    80200256:	02c05363          	blez	a2,8020027c <safestrcpy+0x2c>
    8020025a:	fff6069b          	addiw	a3,a2,-1
    8020025e:	1682                	slli	a3,a3,0x20
    80200260:	9281                	srli	a3,a3,0x20
    80200262:	96ae                	add	a3,a3,a1
    80200264:	87aa                	mv	a5,a0
		return os;
	while (--n > 0 && (*s++ = *t++) != 0)
    80200266:	00d58963          	beq	a1,a3,80200278 <safestrcpy+0x28>
    8020026a:	0585                	addi	a1,a1,1
    8020026c:	0785                	addi	a5,a5,1
    8020026e:	fff5c703          	lbu	a4,-1(a1)
    80200272:	fee78fa3          	sb	a4,-1(a5)
    80200276:	fb65                	bnez	a4,80200266 <safestrcpy+0x16>
		;
	*s = 0;
    80200278:	00078023          	sb	zero,0(a5)
	return os;
}
    8020027c:	6422                	ld	s0,8(sp)
    8020027e:	0141                	addi	sp,sp,16
    80200280:	8082                	ret

0000000080200282 <strlen>:

int strlen(const char *s)
{
    80200282:	1141                	addi	sp,sp,-16
    80200284:	e422                	sd	s0,8(sp)
    80200286:	0800                	addi	s0,sp,16
	int n;

	for (n = 0; s[n]; n++)
    80200288:	00054783          	lbu	a5,0(a0)
    8020028c:	cf91                	beqz	a5,802002a8 <strlen+0x26>
    8020028e:	0505                	addi	a0,a0,1
    80200290:	87aa                	mv	a5,a0
    80200292:	4685                	li	a3,1
    80200294:	9e89                	subw	a3,a3,a0
		;
    80200296:	00f6853b          	addw	a0,a3,a5
    8020029a:	0785                	addi	a5,a5,1
	for (n = 0; s[n]; n++)
    8020029c:	fff7c703          	lbu	a4,-1(a5)
    802002a0:	fb7d                	bnez	a4,80200296 <strlen+0x14>
	return n;
}
    802002a2:	6422                	ld	s0,8(sp)
    802002a4:	0141                	addi	sp,sp,16
    802002a6:	8082                	ret
	for (n = 0; s[n]; n++)
    802002a8:	4501                	li	a0,0
    802002aa:	bfe5                	j	802002a2 <strlen+0x20>

00000000802002ac <dummy>:

void dummy(int _, ...)
{
    802002ac:	715d                	addi	sp,sp,-80
    802002ae:	e422                	sd	s0,8(sp)
    802002b0:	0800                	addi	s0,sp,16
    802002b2:	e40c                	sd	a1,8(s0)
    802002b4:	e810                	sd	a2,16(s0)
    802002b6:	ec14                	sd	a3,24(s0)
    802002b8:	f018                	sd	a4,32(s0)
    802002ba:	f41c                	sd	a5,40(s0)
    802002bc:	03043823          	sd	a6,48(s0)
    802002c0:	03143c23          	sd	a7,56(s0)
    802002c4:	6422                	ld	s0,8(sp)
    802002c6:	6161                	addi	sp,sp,80
    802002c8:	8082                	ret

00000000802002ca <set_usertrap>:

void kerneltrap();

// set up to take exceptions and traps while in the kernel.
void set_usertrap()
{
    802002ca:	1141                	addi	sp,sp,-16
    802002cc:	e422                	sd	s0,8(sp)
    802002ce:	0800                	addi	s0,sp,16
	w_stvec(((uint64)TRAMPOLINE + (uservec - trampoline)) & ~0x3); // DIRECT
    802002d0:	04000737          	lui	a4,0x4000
    802002d4:	00007797          	auipc	a5,0x7
    802002d8:	d2c78793          	addi	a5,a5,-724 # 80207000 <trampoline>
    802002dc:	00007697          	auipc	a3,0x7
    802002e0:	d2468693          	addi	a3,a3,-732 # 80207000 <trampoline>
    802002e4:	8f95                	sub	a5,a5,a3
    802002e6:	177d                	addi	a4,a4,-1
    802002e8:	0732                	slli	a4,a4,0xc
    802002ea:	97ba                	add	a5,a5,a4
    802002ec:	9bf1                	andi	a5,a5,-4

// Supervisor Trap-Vector Base Address
// low two bits are mode.
static inline void w_stvec(uint64 x)
{
	asm volatile("csrw stvec, %0" : : "r"(x));
    802002ee:	10579073          	csrw	stvec,a5
}
    802002f2:	6422                	ld	s0,8(sp)
    802002f4:	0141                	addi	sp,sp,16
    802002f6:	8082                	ret

00000000802002f8 <set_kerneltrap>:

void set_kerneltrap()
{
    802002f8:	1141                	addi	sp,sp,-16
    802002fa:	e422                	sd	s0,8(sp)
    802002fc:	0800                	addi	s0,sp,16
	w_stvec((uint64)kernelvec & ~0x3); // DIRECT
    802002fe:	00006797          	auipc	a5,0x6
    80200302:	da278793          	addi	a5,a5,-606 # 802060a0 <kernelvec>
    80200306:	9bf1                	andi	a5,a5,-4
    80200308:	10579073          	csrw	stvec,a5
}
    8020030c:	6422                	ld	s0,8(sp)
    8020030e:	0141                	addi	sp,sp,16
    80200310:	8082                	ret

0000000080200312 <trap_init>:

// set up to take exceptions and traps while in the kernel.
void trap_init()
{
    80200312:	1141                	addi	sp,sp,-16
    80200314:	e422                	sd	s0,8(sp)
    80200316:	0800                	addi	s0,sp,16
	w_stvec((uint64)kernelvec & ~0x3); // DIRECT
    80200318:	00006797          	auipc	a5,0x6
    8020031c:	d8878793          	addi	a5,a5,-632 # 802060a0 <kernelvec>
    80200320:	9bf1                	andi	a5,a5,-4
    80200322:	10579073          	csrw	stvec,a5
	asm volatile("csrr %0, sie" : "=r"(x));
    80200326:	104027f3          	csrr	a5,sie
	// intr_on();
	set_kerneltrap();
	w_sie(r_sie() | SIE_SEIE | SIE_STIE | SIE_SSIE);
    8020032a:	2227e793          	ori	a5,a5,546
	asm volatile("csrw sie, %0" : : "r"(x));
    8020032e:	10479073          	csrw	sie,a5
}
    80200332:	6422                	ld	s0,8(sp)
    80200334:	0141                	addi	sp,sp,16
    80200336:	8082                	ret

0000000080200338 <unknown_trap>:

void unknown_trap()
{
    80200338:	1101                	addi	sp,sp,-32
    8020033a:	ec06                	sd	ra,24(sp)
    8020033c:	e822                	sd	s0,16(sp)
    8020033e:	e426                	sd	s1,8(sp)
    80200340:	1000                	addi	s0,sp,32
	errorf("unknown trap: %p, stval = %p", r_scause(), r_stval());
    80200342:	00004097          	auipc	ra,0x4
    80200346:	05c080e7          	jalr	92(ra) # 8020439e <procid>
    8020034a:	84aa                	mv	s1,a0
    8020034c:	00004097          	auipc	ra,0x4
    80200350:	06c080e7          	jalr	108(ra) # 802043b8 <threadid>
    80200354:	872a                	mv	a4,a0

// Supervisor Trap Cause
static inline uint64 r_scause()
{
	uint64 x;
	asm volatile("csrr %0, scause" : "=r"(x));
    80200356:	142027f3          	csrr	a5,scause

// Supervisor Trap Value
static inline uint64 r_stval()
{
	uint64 x;
	asm volatile("csrr %0, stval" : "=r"(x));
    8020035a:	14302873          	csrr	a6,stval
    8020035e:	86a6                	mv	a3,s1
    80200360:	00008617          	auipc	a2,0x8
    80200364:	d3060613          	addi	a2,a2,-720 # 80208090 <e_text+0x90>
    80200368:	45fd                	li	a1,31
    8020036a:	00008517          	auipc	a0,0x8
    8020036e:	d2e50513          	addi	a0,a0,-722 # 80208098 <e_text+0x98>
    80200372:	00003097          	auipc	ra,0x3
    80200376:	d54080e7          	jalr	-684(ra) # 802030c6 <printf>
	exit(-1);
    8020037a:	557d                	li	a0,-1
    8020037c:	00005097          	auipc	ra,0x5
    80200380:	e28080e7          	jalr	-472(ra) # 802051a4 <exit>
}
    80200384:	60e2                	ld	ra,24(sp)
    80200386:	6442                	ld	s0,16(sp)
    80200388:	64a2                	ld	s1,8(sp)
    8020038a:	6105                	addi	sp,sp,32
    8020038c:	8082                	ret

000000008020038e <devintr>:

void devintr(uint64 cause)
{
    8020038e:	1101                	addi	sp,sp,-32
    80200390:	ec06                	sd	ra,24(sp)
    80200392:	e822                	sd	s0,16(sp)
    80200394:	e426                	sd	s1,8(sp)
    80200396:	1000                	addi	s0,sp,32
	int irq;
	switch (cause) {
    80200398:	4795                	li	a5,5
    8020039a:	00f50e63          	beq	a0,a5,802003b6 <devintr+0x28>
    8020039e:	47a5                	li	a5,9
    802003a0:	02f50963          	beq	a0,a5,802003d2 <devintr+0x44>
		}
		if (irq)
			plic_complete(irq);
		break;
	default:
		unknown_trap();
    802003a4:	00000097          	auipc	ra,0x0
    802003a8:	f94080e7          	jalr	-108(ra) # 80200338 <unknown_trap>
		break;
	}
}
    802003ac:	60e2                	ld	ra,24(sp)
    802003ae:	6442                	ld	s0,16(sp)
    802003b0:	64a2                	ld	s1,8(sp)
    802003b2:	6105                	addi	sp,sp,32
    802003b4:	8082                	ret
		set_next_timer();
    802003b6:	00005097          	auipc	ra,0x5
    802003ba:	f16080e7          	jalr	-234(ra) # 802052cc <set_next_timer>
	asm volatile("csrr %0, sstatus" : "=r"(x));
    802003be:	100027f3          	csrr	a5,sstatus
		if ((r_sstatus() & SSTATUS_SPP) == 0) {
    802003c2:	1007f793          	andi	a5,a5,256
    802003c6:	f3fd                	bnez	a5,802003ac <devintr+0x1e>
			yield();
    802003c8:	00004097          	auipc	ra,0x4
    802003cc:	72c080e7          	jalr	1836(ra) # 80204af4 <yield>
    802003d0:	bff1                	j	802003ac <devintr+0x1e>
		irq = plic_claim();
    802003d2:	00004097          	auipc	ra,0x4
    802003d6:	f7e080e7          	jalr	-130(ra) # 80204350 <plic_claim>
    802003da:	84aa                	mv	s1,a0
		if (irq == UART0_IRQ) {
    802003dc:	47a9                	li	a5,10
    802003de:	00f50c63          	beq	a0,a5,802003f6 <devintr+0x68>
		} else if (irq == VIRTIO0_IRQ) {
    802003e2:	4785                	li	a5,1
    802003e4:	00f50f63          	beq	a0,a5,80200402 <devintr+0x74>
		} else if (irq) {
    802003e8:	d171                	beqz	a0,802003ac <devintr+0x1e>
			infof("unexpected interrupt irq=%d\n", irq);
    802003ea:	85aa                	mv	a1,a0
    802003ec:	4501                	li	a0,0
    802003ee:	00000097          	auipc	ra,0x0
    802003f2:	ebe080e7          	jalr	-322(ra) # 802002ac <dummy>
			plic_complete(irq);
    802003f6:	8526                	mv	a0,s1
    802003f8:	00004097          	auipc	ra,0x4
    802003fc:	f7c080e7          	jalr	-132(ra) # 80204374 <plic_complete>
    80200400:	b775                	j	802003ac <devintr+0x1e>
			virtio_disk_intr();
    80200402:	00001097          	auipc	ra,0x1
    80200406:	86c080e7          	jalr	-1940(ra) # 80200c6e <virtio_disk_intr>
    8020040a:	b7f5                	j	802003f6 <devintr+0x68>

000000008020040c <usertrapret>:

//
// return to user space
//
void usertrapret()
{
    8020040c:	7139                	addi	sp,sp,-64
    8020040e:	fc06                	sd	ra,56(sp)
    80200410:	f822                	sd	s0,48(sp)
    80200412:	f426                	sd	s1,40(sp)
    80200414:	f04a                	sd	s2,32(sp)
    80200416:	ec4e                	sd	s3,24(sp)
    80200418:	e852                	sd	s4,16(sp)
    8020041a:	e456                	sd	s5,8(sp)
    8020041c:	0080                	addi	s0,sp,64
	w_stvec(((uint64)TRAMPOLINE + (uservec - trampoline)) & ~0x3); // DIRECT
    8020041e:	00007a17          	auipc	s4,0x7
    80200422:	be2a0a13          	addi	s4,s4,-1054 # 80207000 <trampoline>
    80200426:	00007797          	auipc	a5,0x7
    8020042a:	bda78793          	addi	a5,a5,-1062 # 80207000 <trampoline>
    8020042e:	414787b3          	sub	a5,a5,s4
    80200432:	04000937          	lui	s2,0x4000
    80200436:	197d                	addi	s2,s2,-1
    80200438:	0932                	slli	s2,s2,0xc
    8020043a:	97ca                	add	a5,a5,s2
    8020043c:	9bf1                	andi	a5,a5,-4
	asm volatile("csrw stvec, %0" : : "r"(x));
    8020043e:	10579073          	csrw	stvec,a5
	set_usertrap();
	struct trapframe *trapframe = curr_thread()->trapframe;
    80200442:	00004097          	auipc	ra,0x4
    80200446:	fb4080e7          	jalr	-76(ra) # 802043f6 <curr_thread>
    8020044a:	7104                	ld	s1,32(a0)
	asm volatile("csrr %0, satp" : "=r"(x));
    8020044c:	180027f3          	csrr	a5,satp
	trapframe->kernel_satp = r_satp(); // kernel page table
    80200450:	e09c                	sd	a5,0(s1)
	trapframe->kernel_sp =
		curr_thread()->kstack + KSTACK_SIZE; // process's kernel stack
    80200452:	00004097          	auipc	ra,0x4
    80200456:	fa4080e7          	jalr	-92(ra) # 802043f6 <curr_thread>
    8020045a:	6d1c                	ld	a5,24(a0)
    8020045c:	6705                	lui	a4,0x1
    8020045e:	97ba                	add	a5,a5,a4
	trapframe->kernel_sp =
    80200460:	e49c                	sd	a5,8(s1)
	trapframe->kernel_trap = (uint64)usertrap;
    80200462:	00000797          	auipc	a5,0x0
    80200466:	08478793          	addi	a5,a5,132 # 802004e6 <usertrap>
    8020046a:	e89c                	sd	a5,16(s1)
// read and write tp, the thread pointer, which holds
// this core's hartid (core number), the index into cpus[].
static inline uint64 r_tp()
{
	uint64 x;
	asm volatile("mv %0, tp" : "=r"(x));
    8020046c:	8792                	mv	a5,tp
	trapframe->kernel_hartid = r_tp(); // unuesd
    8020046e:	f09c                	sd	a5,32(s1)
	asm volatile("csrw sepc, %0" : : "r"(x));
    80200470:	6c9c                	ld	a5,24(s1)
    80200472:	14179073          	csrw	sepc,a5
	asm volatile("csrr %0, sstatus" : "=r"(x));
    80200476:	100027f3          	csrr	a5,sstatus
	// set up the registers that trampoline.S's sret will use
	// to get to user space.

	// set S Previous Privilege mode to User.
	uint64 x = r_sstatus();
	x &= ~SSTATUS_SPP; // clear SPP to 0 for user mode
    8020047a:	eff7f793          	andi	a5,a5,-257
	x |= SSTATUS_SPIE; // enable interrupts in user mode
    8020047e:	0207e793          	ori	a5,a5,32
	asm volatile("csrw sstatus, %0" : : "r"(x));
    80200482:	10079073          	csrw	sstatus,a5
	w_sstatus(x);

	// tell trampoline.S the user page table to switch to.
	uint64 satp = MAKE_SATP(curr_proc()->pagetable);
    80200486:	00004097          	auipc	ra,0x4
    8020048a:	f58080e7          	jalr	-168(ra) # 802043de <curr_proc>
    8020048e:	00853983          	ld	s3,8(a0)
    80200492:	00c9d993          	srli	s3,s3,0xc
    80200496:	57fd                	li	a5,-1
    80200498:	17fe                	slli	a5,a5,0x3f
    8020049a:	00f9e9b3          	or	s3,s3,a5
	uint64 fn = TRAMPOLINE + (userret - trampoline);
	uint64 trapframe_va = get_thread_trapframe_va(curr_thread()->tid);
    8020049e:	00004097          	auipc	ra,0x4
    802004a2:	f58080e7          	jalr	-168(ra) # 802043f6 <curr_thread>
    802004a6:	4148                	lw	a0,4(a0)
    802004a8:	00004097          	auipc	ra,0x4
    802004ac:	278080e7          	jalr	632(ra) # 80204720 <get_thread_trapframe_va>
    802004b0:	8aaa                	mv	s5,a0
	debugf("return to user @ %p, sp @ %p", trapframe->epc, trapframe->sp);
    802004b2:	7890                	ld	a2,48(s1)
    802004b4:	6c8c                	ld	a1,24(s1)
    802004b6:	4501                	li	a0,0
    802004b8:	00000097          	auipc	ra,0x0
    802004bc:	df4080e7          	jalr	-524(ra) # 802002ac <dummy>
	uint64 fn = TRAMPOLINE + (userret - trampoline);
    802004c0:	00007797          	auipc	a5,0x7
    802004c4:	bd878793          	addi	a5,a5,-1064 # 80207098 <userret>
    802004c8:	414787b3          	sub	a5,a5,s4
    802004cc:	993e                	add	s2,s2,a5
	((void (*)(uint64, uint64))fn)(trapframe_va, satp);
    802004ce:	85ce                	mv	a1,s3
    802004d0:	8556                	mv	a0,s5
    802004d2:	9902                	jalr	s2
}
    802004d4:	70e2                	ld	ra,56(sp)
    802004d6:	7442                	ld	s0,48(sp)
    802004d8:	74a2                	ld	s1,40(sp)
    802004da:	7902                	ld	s2,32(sp)
    802004dc:	69e2                	ld	s3,24(sp)
    802004de:	6a42                	ld	s4,16(sp)
    802004e0:	6aa2                	ld	s5,8(sp)
    802004e2:	6121                	addi	sp,sp,64
    802004e4:	8082                	ret

00000000802004e6 <usertrap>:
{
    802004e6:	7179                	addi	sp,sp,-48
    802004e8:	f406                	sd	ra,40(sp)
    802004ea:	f022                	sd	s0,32(sp)
    802004ec:	ec26                	sd	s1,24(sp)
    802004ee:	e84a                	sd	s2,16(sp)
    802004f0:	e44e                	sd	s3,8(sp)
    802004f2:	1800                	addi	s0,sp,48
	w_stvec((uint64)kernelvec & ~0x3); // DIRECT
    802004f4:	00006797          	auipc	a5,0x6
    802004f8:	bac78793          	addi	a5,a5,-1108 # 802060a0 <kernelvec>
    802004fc:	9bf1                	andi	a5,a5,-4
	asm volatile("csrw stvec, %0" : : "r"(x));
    802004fe:	10579073          	csrw	stvec,a5
	struct trapframe *trapframe = curr_thread()->trapframe;
    80200502:	00004097          	auipc	ra,0x4
    80200506:	ef4080e7          	jalr	-268(ra) # 802043f6 <curr_thread>
    8020050a:	02053903          	ld	s2,32(a0)
	tracef("trap from user epc = %p", trapframe->epc);
    8020050e:	01893583          	ld	a1,24(s2) # 4000018 <BASE_ADDRESS-0x7c1fffe8>
    80200512:	4501                	li	a0,0
    80200514:	00000097          	auipc	ra,0x0
    80200518:	d98080e7          	jalr	-616(ra) # 802002ac <dummy>
	asm volatile("csrr %0, sstatus" : "=r"(x));
    8020051c:	100027f3          	csrr	a5,sstatus
	if ((r_sstatus() & SSTATUS_SPP) != 0)
    80200520:	1007f793          	andi	a5,a5,256
    80200524:	e395                	bnez	a5,80200548 <usertrap+0x62>
	asm volatile("csrr %0, scause" : "=r"(x));
    80200526:	142024f3          	csrr	s1,scause
	if (cause & (1ULL << 63)) {
    8020052a:	0604c163          	bltz	s1,8020058c <usertrap+0xa6>
		switch (cause) {
    8020052e:	47bd                	li	a5,15
    80200530:	1097ea63          	bltu	a5,s1,80200644 <usertrap+0x15e>
    80200534:	00249713          	slli	a4,s1,0x2
    80200538:	00008697          	auipc	a3,0x8
    8020053c:	b1868693          	addi	a3,a3,-1256 # 80208050 <e_text+0x50>
    80200540:	9736                	add	a4,a4,a3
    80200542:	431c                	lw	a5,0(a4)
    80200544:	97b6                	add	a5,a5,a3
    80200546:	8782                	jr	a5
		panic("usertrap: not from user mode");
    80200548:	00004097          	auipc	ra,0x4
    8020054c:	e56080e7          	jalr	-426(ra) # 8020439e <procid>
    80200550:	84aa                	mv	s1,a0
    80200552:	00004097          	auipc	ra,0x4
    80200556:	e66080e7          	jalr	-410(ra) # 802043b8 <threadid>
    8020055a:	04f00813          	li	a6,79
    8020055e:	00008797          	auipc	a5,0x8
    80200562:	b7278793          	addi	a5,a5,-1166 # 802080d0 <e_text+0xd0>
    80200566:	872a                	mv	a4,a0
    80200568:	86a6                	mv	a3,s1
    8020056a:	00008617          	auipc	a2,0x8
    8020056e:	aa660613          	addi	a2,a2,-1370 # 80208010 <e_text+0x10>
    80200572:	45fd                	li	a1,31
    80200574:	00008517          	auipc	a0,0x8
    80200578:	b6c50513          	addi	a0,a0,-1172 # 802080e0 <e_text+0xe0>
    8020057c:	00003097          	auipc	ra,0x3
    80200580:	b4a080e7          	jalr	-1206(ra) # 802030c6 <printf>
    80200584:	00003097          	auipc	ra,0x3
    80200588:	d5a080e7          	jalr	-678(ra) # 802032de <shutdown>
		devintr(cause & 0xff);
    8020058c:	0ff4f513          	andi	a0,s1,255
    80200590:	00000097          	auipc	ra,0x0
    80200594:	dfe080e7          	jalr	-514(ra) # 8020038e <devintr>
	usertrapret();
    80200598:	00000097          	auipc	ra,0x0
    8020059c:	e74080e7          	jalr	-396(ra) # 8020040c <usertrapret>
}
    802005a0:	70a2                	ld	ra,40(sp)
    802005a2:	7402                	ld	s0,32(sp)
    802005a4:	64e2                	ld	s1,24(sp)
    802005a6:	6942                	ld	s2,16(sp)
    802005a8:	69a2                	ld	s3,8(sp)
    802005aa:	6145                	addi	sp,sp,48
    802005ac:	8082                	ret
			trapframe->epc += 4;
    802005ae:	01893783          	ld	a5,24(s2)
    802005b2:	0791                	addi	a5,a5,4
    802005b4:	00f93c23          	sd	a5,24(s2)
			syscall();
    802005b8:	00002097          	auipc	ra,0x2
    802005bc:	d2c080e7          	jalr	-724(ra) # 802022e4 <syscall>
			break;
    802005c0:	bfe1                	j	80200598 <usertrap+0xb2>
			errorf("%d in application, bad addr = %p, bad instruction = %p, "
    802005c2:	00004097          	auipc	ra,0x4
    802005c6:	ddc080e7          	jalr	-548(ra) # 8020439e <procid>
    802005ca:	89aa                	mv	s3,a0
    802005cc:	00004097          	auipc	ra,0x4
    802005d0:	dec080e7          	jalr	-532(ra) # 802043b8 <threadid>
    802005d4:	872a                	mv	a4,a0
	asm volatile("csrr %0, stval" : "=r"(x));
    802005d6:	14302873          	csrr	a6,stval
    802005da:	01893883          	ld	a7,24(s2)
    802005de:	87a6                	mv	a5,s1
    802005e0:	86ce                	mv	a3,s3
    802005e2:	00008617          	auipc	a2,0x8
    802005e6:	aae60613          	addi	a2,a2,-1362 # 80208090 <e_text+0x90>
    802005ea:	45fd                	li	a1,31
    802005ec:	00008517          	auipc	a0,0x8
    802005f0:	b3450513          	addi	a0,a0,-1228 # 80208120 <e_text+0x120>
    802005f4:	00003097          	auipc	ra,0x3
    802005f8:	ad2080e7          	jalr	-1326(ra) # 802030c6 <printf>
			exit(-2);
    802005fc:	5579                	li	a0,-2
    802005fe:	00005097          	auipc	ra,0x5
    80200602:	ba6080e7          	jalr	-1114(ra) # 802051a4 <exit>
			break;
    80200606:	bf49                	j	80200598 <usertrap+0xb2>
			errorf("IllegalInstruction in application, core dumped.");
    80200608:	00004097          	auipc	ra,0x4
    8020060c:	d96080e7          	jalr	-618(ra) # 8020439e <procid>
    80200610:	84aa                	mv	s1,a0
    80200612:	00004097          	auipc	ra,0x4
    80200616:	da6080e7          	jalr	-602(ra) # 802043b8 <threadid>
    8020061a:	872a                	mv	a4,a0
    8020061c:	86a6                	mv	a3,s1
    8020061e:	00008617          	auipc	a2,0x8
    80200622:	a7260613          	addi	a2,a2,-1422 # 80208090 <e_text+0x90>
    80200626:	45fd                	li	a1,31
    80200628:	00008517          	auipc	a0,0x8
    8020062c:	b5850513          	addi	a0,a0,-1192 # 80208180 <e_text+0x180>
    80200630:	00003097          	auipc	ra,0x3
    80200634:	a96080e7          	jalr	-1386(ra) # 802030c6 <printf>
			exit(-3);
    80200638:	5575                	li	a0,-3
    8020063a:	00005097          	auipc	ra,0x5
    8020063e:	b6a080e7          	jalr	-1174(ra) # 802051a4 <exit>
			break;
    80200642:	bf99                	j	80200598 <usertrap+0xb2>
			unknown_trap();
    80200644:	00000097          	auipc	ra,0x0
    80200648:	cf4080e7          	jalr	-780(ra) # 80200338 <unknown_trap>
			break;
    8020064c:	b7b1                	j	80200598 <usertrap+0xb2>

000000008020064e <kerneltrap>:

void kerneltrap()
{
    8020064e:	7179                	addi	sp,sp,-48
    80200650:	f406                	sd	ra,40(sp)
    80200652:	f022                	sd	s0,32(sp)
    80200654:	ec26                	sd	s1,24(sp)
    80200656:	e84a                	sd	s2,16(sp)
    80200658:	e44e                	sd	s3,8(sp)
    8020065a:	e052                	sd	s4,0(sp)
    8020065c:	1800                	addi	s0,sp,48
	asm volatile("csrr %0, sepc" : "=r"(x));
    8020065e:	14102973          	csrr	s2,sepc
	asm volatile("csrr %0, sstatus" : "=r"(x));
    80200662:	100029f3          	csrr	s3,sstatus
	asm volatile("csrr %0, scause" : "=r"(x));
    80200666:	142024f3          	csrr	s1,scause
	uint64 sepc = r_sepc();
	uint64 sstatus = r_sstatus();
	uint64 scause = r_scause();

	debugf("kernel trap: epc = %p, cause = %d", sepc, scause);
    8020066a:	8626                	mv	a2,s1
    8020066c:	85ca                	mv	a1,s2
    8020066e:	4501                	li	a0,0
    80200670:	00000097          	auipc	ra,0x0
    80200674:	c3c080e7          	jalr	-964(ra) # 802002ac <dummy>

	if ((sstatus & SSTATUS_SPP) == 0)
    80200678:	1009f793          	andi	a5,s3,256
    8020067c:	c3a5                	beqz	a5,802006dc <kerneltrap+0x8e>
		panic("kerneltrap: not from supervisor mode");

	if (scause & (1ULL << 63)) {
    8020067e:	0a04c163          	bltz	s1,80200720 <kerneltrap+0xd2>
		devintr(scause & 0xff);
	} else {
		errorf("invalid trap from kernel: %p, stval = %p sepc = %p\n",
    80200682:	00004097          	auipc	ra,0x4
    80200686:	d1c080e7          	jalr	-740(ra) # 8020439e <procid>
    8020068a:	8a2a                	mv	s4,a0
    8020068c:	00004097          	auipc	ra,0x4
    80200690:	d2c080e7          	jalr	-724(ra) # 802043b8 <threadid>
    80200694:	872a                	mv	a4,a0
	asm volatile("csrr %0, stval" : "=r"(x));
    80200696:	14302873          	csrr	a6,stval
    8020069a:	88ca                	mv	a7,s2
    8020069c:	87a6                	mv	a5,s1
    8020069e:	86d2                	mv	a3,s4
    802006a0:	00008617          	auipc	a2,0x8
    802006a4:	9f060613          	addi	a2,a2,-1552 # 80208090 <e_text+0x90>
    802006a8:	45fd                	li	a1,31
    802006aa:	00008517          	auipc	a0,0x8
    802006ae:	b6650513          	addi	a0,a0,-1178 # 80208210 <e_text+0x210>
    802006b2:	00003097          	auipc	ra,0x3
    802006b6:	a14080e7          	jalr	-1516(ra) # 802030c6 <printf>
		       scause, r_stval(), sepc);
		exit(-1);
    802006ba:	557d                	li	a0,-1
    802006bc:	00005097          	auipc	ra,0x5
    802006c0:	ae8080e7          	jalr	-1304(ra) # 802051a4 <exit>
	asm volatile("csrw sepc, %0" : : "r"(x));
    802006c4:	14191073          	csrw	sepc,s2
	asm volatile("csrw sstatus, %0" : : "r"(x));
    802006c8:	10099073          	csrw	sstatus,s3
	}
	// the yield() may have caused some traps to occur,
	// so restore trap registers for use by kernelvec.S's sepc instruction.
	w_sepc(sepc);
	w_sstatus(sstatus);
}
    802006cc:	70a2                	ld	ra,40(sp)
    802006ce:	7402                	ld	s0,32(sp)
    802006d0:	64e2                	ld	s1,24(sp)
    802006d2:	6942                	ld	s2,16(sp)
    802006d4:	69a2                	ld	s3,8(sp)
    802006d6:	6a02                	ld	s4,0(sp)
    802006d8:	6145                	addi	sp,sp,48
    802006da:	8082                	ret
		panic("kerneltrap: not from supervisor mode");
    802006dc:	00004097          	auipc	ra,0x4
    802006e0:	cc2080e7          	jalr	-830(ra) # 8020439e <procid>
    802006e4:	84aa                	mv	s1,a0
    802006e6:	00004097          	auipc	ra,0x4
    802006ea:	cd2080e7          	jalr	-814(ra) # 802043b8 <threadid>
    802006ee:	09900813          	li	a6,153
    802006f2:	00008797          	auipc	a5,0x8
    802006f6:	9de78793          	addi	a5,a5,-1570 # 802080d0 <e_text+0xd0>
    802006fa:	872a                	mv	a4,a0
    802006fc:	86a6                	mv	a3,s1
    802006fe:	00008617          	auipc	a2,0x8
    80200702:	91260613          	addi	a2,a2,-1774 # 80208010 <e_text+0x10>
    80200706:	45fd                	li	a1,31
    80200708:	00008517          	auipc	a0,0x8
    8020070c:	ac050513          	addi	a0,a0,-1344 # 802081c8 <e_text+0x1c8>
    80200710:	00003097          	auipc	ra,0x3
    80200714:	9b6080e7          	jalr	-1610(ra) # 802030c6 <printf>
    80200718:	00003097          	auipc	ra,0x3
    8020071c:	bc6080e7          	jalr	-1082(ra) # 802032de <shutdown>
		devintr(scause & 0xff);
    80200720:	0ff4f513          	andi	a0,s1,255
    80200724:	00000097          	auipc	ra,0x0
    80200728:	c6a080e7          	jalr	-918(ra) # 8020038e <devintr>
    8020072c:	bf61                	j	802006c4 <kerneltrap+0x76>

000000008020072e <free_desc>:
	return -1;
}

// mark a descriptor as free.
static void free_desc(int i)
{
    8020072e:	1101                	addi	sp,sp,-32
    80200730:	ec06                	sd	ra,24(sp)
    80200732:	e822                	sd	s0,16(sp)
    80200734:	e426                	sd	s1,8(sp)
    80200736:	1000                	addi	s0,sp,32
	if (i >= NUM)
    80200738:	479d                	li	a5,7
    8020073a:	06a7c263          	blt	a5,a0,8020079e <free_desc+0x70>
		panic("free_desc 1");
	if (disk.free[i])
    8020073e:	0001b797          	auipc	a5,0x1b
    80200742:	8c278793          	addi	a5,a5,-1854 # 8021b000 <disk>
    80200746:	00a78733          	add	a4,a5,a0
    8020074a:	6789                	lui	a5,0x2
    8020074c:	97ba                	add	a5,a5,a4
    8020074e:	0187c783          	lbu	a5,24(a5) # 2018 <BASE_ADDRESS-0x801fdfe8>
    80200752:	ebc1                	bnez	a5,802007e2 <free_desc+0xb4>
		panic("free_desc 2");
	disk.desc[i].addr = 0;
    80200754:	00451793          	slli	a5,a0,0x4
    80200758:	0001d717          	auipc	a4,0x1d
    8020075c:	8a870713          	addi	a4,a4,-1880 # 8021d000 <disk+0x2000>
    80200760:	6314                	ld	a3,0(a4)
    80200762:	96be                	add	a3,a3,a5
    80200764:	0006b023          	sd	zero,0(a3)
	disk.desc[i].len = 0;
    80200768:	6314                	ld	a3,0(a4)
    8020076a:	96be                	add	a3,a3,a5
    8020076c:	0006a423          	sw	zero,8(a3)
	disk.desc[i].flags = 0;
    80200770:	6314                	ld	a3,0(a4)
    80200772:	96be                	add	a3,a3,a5
    80200774:	00069623          	sh	zero,12(a3)
	disk.desc[i].next = 0;
    80200778:	6318                	ld	a4,0(a4)
    8020077a:	97ba                	add	a5,a5,a4
    8020077c:	00079723          	sh	zero,14(a5)
	disk.free[i] = 1;
    80200780:	0001b797          	auipc	a5,0x1b
    80200784:	88078793          	addi	a5,a5,-1920 # 8021b000 <disk>
    80200788:	97aa                	add	a5,a5,a0
    8020078a:	6509                	lui	a0,0x2
    8020078c:	953e                	add	a0,a0,a5
    8020078e:	4785                	li	a5,1
    80200790:	00f50c23          	sb	a5,24(a0) # 2018 <BASE_ADDRESS-0x801fdfe8>
}
    80200794:	60e2                	ld	ra,24(sp)
    80200796:	6442                	ld	s0,16(sp)
    80200798:	64a2                	ld	s1,8(sp)
    8020079a:	6105                	addi	sp,sp,32
    8020079c:	8082                	ret
		panic("free_desc 1");
    8020079e:	00004097          	auipc	ra,0x4
    802007a2:	c00080e7          	jalr	-1024(ra) # 8020439e <procid>
    802007a6:	84aa                	mv	s1,a0
    802007a8:	00004097          	auipc	ra,0x4
    802007ac:	c10080e7          	jalr	-1008(ra) # 802043b8 <threadid>
    802007b0:	09800813          	li	a6,152
    802007b4:	00008797          	auipc	a5,0x8
    802007b8:	aa478793          	addi	a5,a5,-1372 # 80208258 <e_text+0x258>
    802007bc:	872a                	mv	a4,a0
    802007be:	86a6                	mv	a3,s1
    802007c0:	00008617          	auipc	a2,0x8
    802007c4:	85060613          	addi	a2,a2,-1968 # 80208010 <e_text+0x10>
    802007c8:	45fd                	li	a1,31
    802007ca:	00008517          	auipc	a0,0x8
    802007ce:	aa650513          	addi	a0,a0,-1370 # 80208270 <e_text+0x270>
    802007d2:	00003097          	auipc	ra,0x3
    802007d6:	8f4080e7          	jalr	-1804(ra) # 802030c6 <printf>
    802007da:	00003097          	auipc	ra,0x3
    802007de:	b04080e7          	jalr	-1276(ra) # 802032de <shutdown>
		panic("free_desc 2");
    802007e2:	00004097          	auipc	ra,0x4
    802007e6:	bbc080e7          	jalr	-1092(ra) # 8020439e <procid>
    802007ea:	84aa                	mv	s1,a0
    802007ec:	00004097          	auipc	ra,0x4
    802007f0:	bcc080e7          	jalr	-1076(ra) # 802043b8 <threadid>
    802007f4:	09a00813          	li	a6,154
    802007f8:	00008797          	auipc	a5,0x8
    802007fc:	a6078793          	addi	a5,a5,-1440 # 80208258 <e_text+0x258>
    80200800:	872a                	mv	a4,a0
    80200802:	86a6                	mv	a3,s1
    80200804:	00008617          	auipc	a2,0x8
    80200808:	80c60613          	addi	a2,a2,-2036 # 80208010 <e_text+0x10>
    8020080c:	45fd                	li	a1,31
    8020080e:	00008517          	auipc	a0,0x8
    80200812:	a8a50513          	addi	a0,a0,-1398 # 80208298 <e_text+0x298>
    80200816:	00003097          	auipc	ra,0x3
    8020081a:	8b0080e7          	jalr	-1872(ra) # 802030c6 <printf>
    8020081e:	00003097          	auipc	ra,0x3
    80200822:	ac0080e7          	jalr	-1344(ra) # 802032de <shutdown>

0000000080200826 <virtio_disk_init>:
{
    80200826:	1101                	addi	sp,sp,-32
    80200828:	ec06                	sd	ra,24(sp)
    8020082a:	e822                	sd	s0,16(sp)
    8020082c:	e426                	sd	s1,8(sp)
    8020082e:	1000                	addi	s0,sp,32
	if (*R(VIRTIO_MMIO_MAGIC_VALUE) != 0x74726976 ||
    80200830:	100017b7          	lui	a5,0x10001
    80200834:	4398                	lw	a4,0(a5)
    80200836:	2701                	sext.w	a4,a4
    80200838:	747277b7          	lui	a5,0x74727
    8020083c:	97678793          	addi	a5,a5,-1674 # 74726976 <BASE_ADDRESS-0xbad968a>
    80200840:	0ef71163          	bne	a4,a5,80200922 <virtio_disk_init+0xfc>
	    *R(VIRTIO_MMIO_VERSION) != 1 || *R(VIRTIO_MMIO_DEVICE_ID) != 2 ||
    80200844:	100017b7          	lui	a5,0x10001
    80200848:	43dc                	lw	a5,4(a5)
    8020084a:	2781                	sext.w	a5,a5
	if (*R(VIRTIO_MMIO_MAGIC_VALUE) != 0x74726976 ||
    8020084c:	4705                	li	a4,1
    8020084e:	0ce79a63          	bne	a5,a4,80200922 <virtio_disk_init+0xfc>
	    *R(VIRTIO_MMIO_VERSION) != 1 || *R(VIRTIO_MMIO_DEVICE_ID) != 2 ||
    80200852:	100017b7          	lui	a5,0x10001
    80200856:	479c                	lw	a5,8(a5)
    80200858:	2781                	sext.w	a5,a5
    8020085a:	4709                	li	a4,2
    8020085c:	0ce79363          	bne	a5,a4,80200922 <virtio_disk_init+0xfc>
	    *R(VIRTIO_MMIO_VENDOR_ID) != 0x554d4551) {
    80200860:	100017b7          	lui	a5,0x10001
    80200864:	47d8                	lw	a4,12(a5)
    80200866:	2701                	sext.w	a4,a4
	    *R(VIRTIO_MMIO_VERSION) != 1 || *R(VIRTIO_MMIO_DEVICE_ID) != 2 ||
    80200868:	554d47b7          	lui	a5,0x554d4
    8020086c:	55178793          	addi	a5,a5,1361 # 554d4551 <BASE_ADDRESS-0x2ad2baaf>
    80200870:	0af71963          	bne	a4,a5,80200922 <virtio_disk_init+0xfc>
	*R(VIRTIO_MMIO_STATUS) = status;
    80200874:	100017b7          	lui	a5,0x10001
    80200878:	4705                	li	a4,1
    8020087a:	dbb8                	sw	a4,112(a5)
	*R(VIRTIO_MMIO_STATUS) = status;
    8020087c:	470d                	li	a4,3
    8020087e:	dbb8                	sw	a4,112(a5)
	uint64 features = *R(VIRTIO_MMIO_DEVICE_FEATURES);
    80200880:	4b94                	lw	a3,16(a5)
	features &= ~(1 << VIRTIO_RING_F_INDIRECT_DESC);
    80200882:	c7ffe737          	lui	a4,0xc7ffe
    80200886:	75f70713          	addi	a4,a4,1887 # ffffffffc7ffe75f <e_bss+0xffffffff46ce075f>
    8020088a:	8f75                	and	a4,a4,a3
	*R(VIRTIO_MMIO_DRIVER_FEATURES) = features;
    8020088c:	2701                	sext.w	a4,a4
    8020088e:	d398                	sw	a4,32(a5)
	*R(VIRTIO_MMIO_STATUS) = status;
    80200890:	472d                	li	a4,11
    80200892:	dbb8                	sw	a4,112(a5)
	*R(VIRTIO_MMIO_STATUS) = status;
    80200894:	473d                	li	a4,15
    80200896:	dbb8                	sw	a4,112(a5)
	*R(VIRTIO_MMIO_GUEST_PAGE_SIZE) = PGSIZE;
    80200898:	6705                	lui	a4,0x1
    8020089a:	d798                	sw	a4,40(a5)
	*R(VIRTIO_MMIO_QUEUE_SEL) = 0;
    8020089c:	0207a823          	sw	zero,48(a5) # 10001030 <BASE_ADDRESS-0x701fefd0>
	uint32 max = *R(VIRTIO_MMIO_QUEUE_NUM_MAX);
    802008a0:	5bdc                	lw	a5,52(a5)
    802008a2:	2781                	sext.w	a5,a5
	if (max == 0)
    802008a4:	c3e9                	beqz	a5,80200966 <virtio_disk_init+0x140>
	if (max < NUM)
    802008a6:	471d                	li	a4,7
    802008a8:	10f77163          	bgeu	a4,a5,802009aa <virtio_disk_init+0x184>
	*R(VIRTIO_MMIO_QUEUE_NUM) = NUM;
    802008ac:	100014b7          	lui	s1,0x10001
    802008b0:	47a1                	li	a5,8
    802008b2:	dc9c                	sw	a5,56(s1)
	memset(disk.pages, 0, sizeof(disk.pages));
    802008b4:	6609                	lui	a2,0x2
    802008b6:	4581                	li	a1,0
    802008b8:	0001a517          	auipc	a0,0x1a
    802008bc:	74850513          	addi	a0,a0,1864 # 8021b000 <disk>
    802008c0:	00000097          	auipc	ra,0x0
    802008c4:	818080e7          	jalr	-2024(ra) # 802000d8 <memset>
	*R(VIRTIO_MMIO_QUEUE_PFN) = ((uint64)disk.pages) >> PGSHIFT;
    802008c8:	0001a717          	auipc	a4,0x1a
    802008cc:	73870713          	addi	a4,a4,1848 # 8021b000 <disk>
    802008d0:	00c75793          	srli	a5,a4,0xc
    802008d4:	2781                	sext.w	a5,a5
    802008d6:	c0bc                	sw	a5,64(s1)
	disk.desc = (struct virtq_desc *)disk.pages;
    802008d8:	0001c797          	auipc	a5,0x1c
    802008dc:	72878793          	addi	a5,a5,1832 # 8021d000 <disk+0x2000>
    802008e0:	e398                	sd	a4,0(a5)
	disk.avail = (struct virtq_avail *)(disk.pages +
    802008e2:	0001a717          	auipc	a4,0x1a
    802008e6:	79e70713          	addi	a4,a4,1950 # 8021b080 <disk+0x80>
    802008ea:	e798                	sd	a4,8(a5)
	disk.used = (struct virtq_used *)(disk.pages + PGSIZE);
    802008ec:	0001b717          	auipc	a4,0x1b
    802008f0:	71470713          	addi	a4,a4,1812 # 8021c000 <disk+0x1000>
    802008f4:	eb98                	sd	a4,16(a5)
		disk.free[i] = 1;
    802008f6:	4705                	li	a4,1
    802008f8:	00e78c23          	sb	a4,24(a5)
    802008fc:	00e78ca3          	sb	a4,25(a5)
    80200900:	00e78d23          	sb	a4,26(a5)
    80200904:	00e78da3          	sb	a4,27(a5)
    80200908:	00e78e23          	sb	a4,28(a5)
    8020090c:	00e78ea3          	sb	a4,29(a5)
    80200910:	00e78f23          	sb	a4,30(a5)
    80200914:	00e78fa3          	sb	a4,31(a5)
}
    80200918:	60e2                	ld	ra,24(sp)
    8020091a:	6442                	ld	s0,16(sp)
    8020091c:	64a2                	ld	s1,8(sp)
    8020091e:	6105                	addi	sp,sp,32
    80200920:	8082                	ret
		panic("could not find virtio disk");
    80200922:	00004097          	auipc	ra,0x4
    80200926:	a7c080e7          	jalr	-1412(ra) # 8020439e <procid>
    8020092a:	84aa                	mv	s1,a0
    8020092c:	00004097          	auipc	ra,0x4
    80200930:	a8c080e7          	jalr	-1396(ra) # 802043b8 <threadid>
    80200934:	04f00813          	li	a6,79
    80200938:	00008797          	auipc	a5,0x8
    8020093c:	92078793          	addi	a5,a5,-1760 # 80208258 <e_text+0x258>
    80200940:	872a                	mv	a4,a0
    80200942:	86a6                	mv	a3,s1
    80200944:	00007617          	auipc	a2,0x7
    80200948:	6cc60613          	addi	a2,a2,1740 # 80208010 <e_text+0x10>
    8020094c:	45fd                	li	a1,31
    8020094e:	00008517          	auipc	a0,0x8
    80200952:	97250513          	addi	a0,a0,-1678 # 802082c0 <e_text+0x2c0>
    80200956:	00002097          	auipc	ra,0x2
    8020095a:	770080e7          	jalr	1904(ra) # 802030c6 <printf>
    8020095e:	00003097          	auipc	ra,0x3
    80200962:	980080e7          	jalr	-1664(ra) # 802032de <shutdown>
		panic("virtio disk has no queue 0");
    80200966:	00004097          	auipc	ra,0x4
    8020096a:	a38080e7          	jalr	-1480(ra) # 8020439e <procid>
    8020096e:	84aa                	mv	s1,a0
    80200970:	00004097          	auipc	ra,0x4
    80200974:	a48080e7          	jalr	-1464(ra) # 802043b8 <threadid>
    80200978:	07100813          	li	a6,113
    8020097c:	00008797          	auipc	a5,0x8
    80200980:	8dc78793          	addi	a5,a5,-1828 # 80208258 <e_text+0x258>
    80200984:	872a                	mv	a4,a0
    80200986:	86a6                	mv	a3,s1
    80200988:	00007617          	auipc	a2,0x7
    8020098c:	68860613          	addi	a2,a2,1672 # 80208010 <e_text+0x10>
    80200990:	45fd                	li	a1,31
    80200992:	00008517          	auipc	a0,0x8
    80200996:	96650513          	addi	a0,a0,-1690 # 802082f8 <e_text+0x2f8>
    8020099a:	00002097          	auipc	ra,0x2
    8020099e:	72c080e7          	jalr	1836(ra) # 802030c6 <printf>
    802009a2:	00003097          	auipc	ra,0x3
    802009a6:	93c080e7          	jalr	-1732(ra) # 802032de <shutdown>
		panic("virtio disk max queue too short");
    802009aa:	00004097          	auipc	ra,0x4
    802009ae:	9f4080e7          	jalr	-1548(ra) # 8020439e <procid>
    802009b2:	84aa                	mv	s1,a0
    802009b4:	00004097          	auipc	ra,0x4
    802009b8:	a04080e7          	jalr	-1532(ra) # 802043b8 <threadid>
    802009bc:	07300813          	li	a6,115
    802009c0:	00008797          	auipc	a5,0x8
    802009c4:	89878793          	addi	a5,a5,-1896 # 80208258 <e_text+0x258>
    802009c8:	872a                	mv	a4,a0
    802009ca:	86a6                	mv	a3,s1
    802009cc:	00007617          	auipc	a2,0x7
    802009d0:	64460613          	addi	a2,a2,1604 # 80208010 <e_text+0x10>
    802009d4:	45fd                	li	a1,31
    802009d6:	00008517          	auipc	a0,0x8
    802009da:	95a50513          	addi	a0,a0,-1702 # 80208330 <e_text+0x330>
    802009de:	00002097          	auipc	ra,0x2
    802009e2:	6e8080e7          	jalr	1768(ra) # 802030c6 <printf>
    802009e6:	00003097          	auipc	ra,0x3
    802009ea:	8f8080e7          	jalr	-1800(ra) # 802032de <shutdown>

00000000802009ee <virtio_disk_rw>:
}

extern int PID;

void virtio_disk_rw(struct buf *b, int write)
{
    802009ee:	711d                	addi	sp,sp,-96
    802009f0:	ec86                	sd	ra,88(sp)
    802009f2:	e8a2                	sd	s0,80(sp)
    802009f4:	e4a6                	sd	s1,72(sp)
    802009f6:	e0ca                	sd	s2,64(sp)
    802009f8:	fc4e                	sd	s3,56(sp)
    802009fa:	f852                	sd	s4,48(sp)
    802009fc:	f456                	sd	s5,40(sp)
    802009fe:	f05a                	sd	s6,32(sp)
    80200a00:	ec5e                	sd	s7,24(sp)
    80200a02:	e862                	sd	s8,16(sp)
    80200a04:	1080                	addi	s0,sp,96
    80200a06:	892a                	mv	s2,a0
    80200a08:	8c2e                	mv	s8,a1
	uint64 sector = b->blockno * (BSIZE / 512);
    80200a0a:	00c52b83          	lw	s7,12(a0)
    80200a0e:	001b9b9b          	slliw	s7,s7,0x1
    80200a12:	1b82                	slli	s7,s7,0x20
    80200a14:	020bdb93          	srli	s7,s7,0x20
		if (disk.free[i]) {
    80200a18:	0001c997          	auipc	s3,0x1c
    80200a1c:	5e898993          	addi	s3,s3,1512 # 8021d000 <disk+0x2000>
	for (int i = 0; i < NUM; i++) {
    80200a20:	4b21                	li	s6,8
			disk.free[i] = 0;
    80200a22:	0001aa97          	auipc	s5,0x1a
    80200a26:	5dea8a93          	addi	s5,s5,1502 # 8021b000 <disk>
	for (int i = 0; i < 3; i++) {
    80200a2a:	4a0d                	li	s4,3
    80200a2c:	a8bd                	j	80200aaa <virtio_disk_rw+0xbc>
			disk.free[i] = 0;
    80200a2e:	00fa86b3          	add	a3,s5,a5
    80200a32:	96ae                	add	a3,a3,a1
    80200a34:	00068c23          	sb	zero,24(a3)
		idx[i] = alloc_desc();
    80200a38:	c21c                	sw	a5,0(a2)
		if (idx[i] < 0) {
    80200a3a:	0207ca63          	bltz	a5,80200a6e <virtio_disk_rw+0x80>
	for (int i = 0; i < 3; i++) {
    80200a3e:	2485                	addiw	s1,s1,1
    80200a40:	0711                	addi	a4,a4,4
    80200a42:	19448c63          	beq	s1,s4,80200bda <virtio_disk_rw+0x1ec>
		idx[i] = alloc_desc();
    80200a46:	863a                	mv	a2,a4
		if (disk.free[i]) {
    80200a48:	0189c783          	lbu	a5,24(s3)
    80200a4c:	20079c63          	bnez	a5,80200c64 <virtio_disk_rw+0x276>
    80200a50:	0001c697          	auipc	a3,0x1c
    80200a54:	5c968693          	addi	a3,a3,1481 # 8021d019 <disk+0x2019>
	for (int i = 0; i < NUM; i++) {
    80200a58:	87aa                	mv	a5,a0
		if (disk.free[i]) {
    80200a5a:	0006c803          	lbu	a6,0(a3)
    80200a5e:	fc0818e3          	bnez	a6,80200a2e <virtio_disk_rw+0x40>
	for (int i = 0; i < NUM; i++) {
    80200a62:	2785                	addiw	a5,a5,1
    80200a64:	0685                	addi	a3,a3,1
    80200a66:	ff679ae3          	bne	a5,s6,80200a5a <virtio_disk_rw+0x6c>
		idx[i] = alloc_desc();
    80200a6a:	57fd                	li	a5,-1
    80200a6c:	c21c                	sw	a5,0(a2)
			for (int j = 0; j < i; j++)
    80200a6e:	02905a63          	blez	s1,80200aa2 <virtio_disk_rw+0xb4>
				free_desc(idx[j]);
    80200a72:	fa042503          	lw	a0,-96(s0)
    80200a76:	00000097          	auipc	ra,0x0
    80200a7a:	cb8080e7          	jalr	-840(ra) # 8020072e <free_desc>
			for (int j = 0; j < i; j++)
    80200a7e:	4785                	li	a5,1
    80200a80:	0297d163          	bge	a5,s1,80200aa2 <virtio_disk_rw+0xb4>
				free_desc(idx[j]);
    80200a84:	fa442503          	lw	a0,-92(s0)
    80200a88:	00000097          	auipc	ra,0x0
    80200a8c:	ca6080e7          	jalr	-858(ra) # 8020072e <free_desc>
			for (int j = 0; j < i; j++)
    80200a90:	4789                	li	a5,2
    80200a92:	0097d863          	bge	a5,s1,80200aa2 <virtio_disk_rw+0xb4>
				free_desc(idx[j]);
    80200a96:	fa842503          	lw	a0,-88(s0)
    80200a9a:	00000097          	auipc	ra,0x0
    80200a9e:	c94080e7          	jalr	-876(ra) # 8020072e <free_desc>
	int idx[3];
	while (1) {
		if (alloc3_desc(idx) == 0) {
			break;
		}
		yield();
    80200aa2:	00004097          	auipc	ra,0x4
    80200aa6:	052080e7          	jalr	82(ra) # 80204af4 <yield>
	for (int i = 0; i < 3; i++) {
    80200aaa:	fa040713          	addi	a4,s0,-96
    80200aae:	4481                	li	s1,0
	for (int i = 0; i < NUM; i++) {
    80200ab0:	4505                	li	a0,1
			disk.free[i] = 0;
    80200ab2:	6589                	lui	a1,0x2
    80200ab4:	bf49                	j	80200a46 <virtio_disk_rw+0x58>
	disk.desc[idx[0]].next = idx[1];

	disk.desc[idx[1]].addr = (uint64)b->data;
	disk.desc[idx[1]].len = BSIZE;
	if (write)
		disk.desc[idx[1]].flags = 0; // device reads b->data
    80200ab6:	0001c697          	auipc	a3,0x1c
    80200aba:	54a68693          	addi	a3,a3,1354 # 8021d000 <disk+0x2000>
    80200abe:	6294                	ld	a3,0(a3)
    80200ac0:	96ba                	add	a3,a3,a4
    80200ac2:	00069623          	sh	zero,12(a3)
	else
		disk.desc[idx[1]].flags =
			VRING_DESC_F_WRITE; // device writes b->data
	disk.desc[idx[1]].flags |= VRING_DESC_F_NEXT;
    80200ac6:	0001a817          	auipc	a6,0x1a
    80200aca:	53a80813          	addi	a6,a6,1338 # 8021b000 <disk>
    80200ace:	0001c697          	auipc	a3,0x1c
    80200ad2:	53268693          	addi	a3,a3,1330 # 8021d000 <disk+0x2000>
    80200ad6:	6290                	ld	a2,0(a3)
    80200ad8:	963a                	add	a2,a2,a4
    80200ada:	00c65583          	lhu	a1,12(a2)
    80200ade:	0015e593          	ori	a1,a1,1
    80200ae2:	00b61623          	sh	a1,12(a2)
	disk.desc[idx[1]].next = idx[2];
    80200ae6:	fa842603          	lw	a2,-88(s0)
    80200aea:	628c                	ld	a1,0(a3)
    80200aec:	972e                	add	a4,a4,a1
    80200aee:	00c71723          	sh	a2,14(a4)

	disk.info[idx[0]].status = 0xfb; // device writes 0 on success
    80200af2:	20050593          	addi	a1,a0,512
    80200af6:	0592                	slli	a1,a1,0x4
    80200af8:	95c2                	add	a1,a1,a6
    80200afa:	576d                	li	a4,-5
    80200afc:	02e58823          	sb	a4,48(a1) # 2030 <BASE_ADDRESS-0x801fdfd0>
	disk.desc[idx[2]].addr = (uint64)&disk.info[idx[0]].status;
    80200b00:	00461713          	slli	a4,a2,0x4
    80200b04:	6290                	ld	a2,0(a3)
    80200b06:	963a                	add	a2,a2,a4
    80200b08:	03078793          	addi	a5,a5,48
    80200b0c:	97c2                	add	a5,a5,a6
    80200b0e:	e21c                	sd	a5,0(a2)
	disk.desc[idx[2]].len = 1;
    80200b10:	629c                	ld	a5,0(a3)
    80200b12:	97ba                	add	a5,a5,a4
    80200b14:	4605                	li	a2,1
    80200b16:	c790                	sw	a2,8(a5)
	disk.desc[idx[2]].flags =
    80200b18:	629c                	ld	a5,0(a3)
    80200b1a:	97ba                	add	a5,a5,a4
    80200b1c:	4809                	li	a6,2
    80200b1e:	01079623          	sh	a6,12(a5)
		VRING_DESC_F_WRITE; // device writes the status
	disk.desc[idx[2]].next = 0;
    80200b22:	629c                	ld	a5,0(a3)
    80200b24:	973e                	add	a4,a4,a5
    80200b26:	00071723          	sh	zero,14(a4)

	// record struct buf for virtio_disk_intr().
	b->disk = 1;
    80200b2a:	00c92223          	sw	a2,4(s2)
	disk.info[idx[0]].b = b;
    80200b2e:	0325b423          	sd	s2,40(a1)

	// tell the device the first index in our chain of descriptors.
	disk.avail->ring[disk.avail->idx % NUM] = idx[0];
    80200b32:	6698                	ld	a4,8(a3)
    80200b34:	00275783          	lhu	a5,2(a4)
    80200b38:	8b9d                	andi	a5,a5,7
    80200b3a:	0786                	slli	a5,a5,0x1
    80200b3c:	97ba                	add	a5,a5,a4
    80200b3e:	00a79223          	sh	a0,4(a5)

	__sync_synchronize();
    80200b42:	0ff0000f          	fence

	// tell the device another avail ring entry is available.
	disk.avail->idx += 1; // not % NUM ...
    80200b46:	6698                	ld	a4,8(a3)
    80200b48:	00275783          	lhu	a5,2(a4)
    80200b4c:	2785                	addiw	a5,a5,1
    80200b4e:	00f71123          	sh	a5,2(a4)

	__sync_synchronize();
    80200b52:	0ff0000f          	fence

	*R(VIRTIO_MMIO_QUEUE_NOTIFY) = 0; // value is queue number
    80200b56:	100017b7          	lui	a5,0x10001
    80200b5a:	0407a823          	sw	zero,80(a5) # 10001050 <BASE_ADDRESS-0x701fefb0>
	asm volatile("csrr %0, sstatus" : "=r"(x));
    80200b5e:	100027f3          	csrr	a5,sstatus
	w_sstatus(r_sstatus() | SSTATUS_SIE);
    80200b62:	0027e793          	ori	a5,a5,2
	asm volatile("csrw sstatus, %0" : : "r"(x));
    80200b66:	10079073          	csrw	sstatus,a5

	// Wait for virtio_disk_intr() to say request has finished.
	// Make sure complier will load 'b' form memory
	struct buf volatile *_b = b;
	intr_on();
	while (_b->disk == 1) {
    80200b6a:	4705                	li	a4,1
    80200b6c:	00492783          	lw	a5,4(s2)
    80200b70:	2781                	sext.w	a5,a5
    80200b72:	fee78de3          	beq	a5,a4,80200b6c <virtio_disk_rw+0x17e>
	asm volatile("csrr %0, sstatus" : "=r"(x));
    80200b76:	100027f3          	csrr	a5,sstatus
	w_sstatus(r_sstatus() & ~SSTATUS_SIE);
    80200b7a:	9bf5                	andi	a5,a5,-3
	asm volatile("csrw sstatus, %0" : : "r"(x));
    80200b7c:	10079073          	csrw	sstatus,a5
		// WARN: No kernel concurrent support, DO NOT allow kernel yield
		// yield();
	}
	intr_off();
	disk.info[idx[0]].b = 0;
    80200b80:	fa042503          	lw	a0,-96(s0)
    80200b84:	20050793          	addi	a5,a0,512
    80200b88:	00479713          	slli	a4,a5,0x4
    80200b8c:	0001a797          	auipc	a5,0x1a
    80200b90:	47478793          	addi	a5,a5,1140 # 8021b000 <disk>
    80200b94:	97ba                	add	a5,a5,a4
    80200b96:	0207b423          	sd	zero,40(a5)
		int flag = disk.desc[i].flags;
    80200b9a:	0001c997          	auipc	s3,0x1c
    80200b9e:	46698993          	addi	s3,s3,1126 # 8021d000 <disk+0x2000>
    80200ba2:	00451713          	slli	a4,a0,0x4
    80200ba6:	0009b783          	ld	a5,0(s3)
    80200baa:	97ba                	add	a5,a5,a4
    80200bac:	00c7d483          	lhu	s1,12(a5)
		int nxt = disk.desc[i].next;
    80200bb0:	00e7d903          	lhu	s2,14(a5)
		free_desc(i);
    80200bb4:	00000097          	auipc	ra,0x0
    80200bb8:	b7a080e7          	jalr	-1158(ra) # 8020072e <free_desc>
			i = nxt;
    80200bbc:	854a                	mv	a0,s2
		if (flag & VRING_DESC_F_NEXT)
    80200bbe:	8885                	andi	s1,s1,1
    80200bc0:	f0ed                	bnez	s1,80200ba2 <virtio_disk_rw+0x1b4>
	free_chain(idx[0]);
}
    80200bc2:	60e6                	ld	ra,88(sp)
    80200bc4:	6446                	ld	s0,80(sp)
    80200bc6:	64a6                	ld	s1,72(sp)
    80200bc8:	6906                	ld	s2,64(sp)
    80200bca:	79e2                	ld	s3,56(sp)
    80200bcc:	7a42                	ld	s4,48(sp)
    80200bce:	7aa2                	ld	s5,40(sp)
    80200bd0:	7b02                	ld	s6,32(sp)
    80200bd2:	6be2                	ld	s7,24(sp)
    80200bd4:	6c42                	ld	s8,16(sp)
    80200bd6:	6125                	addi	sp,sp,96
    80200bd8:	8082                	ret
	struct virtio_blk_req *buf0 = &disk.ops[idx[0]];
    80200bda:	fa042503          	lw	a0,-96(s0)
    80200bde:	20050793          	addi	a5,a0,512
    80200be2:	0792                	slli	a5,a5,0x4
	if (write)
    80200be4:	0001a817          	auipc	a6,0x1a
    80200be8:	41c80813          	addi	a6,a6,1052 # 8021b000 <disk>
    80200bec:	00f80733          	add	a4,a6,a5
    80200bf0:	018036b3          	snez	a3,s8
    80200bf4:	0ad72423          	sw	a3,168(a4)
	buf0->reserved = 0;
    80200bf8:	0a072623          	sw	zero,172(a4)
	buf0->sector = sector;
    80200bfc:	0b773823          	sd	s7,176(a4)
	disk.desc[idx[0]].addr = (uint64)buf0;
    80200c00:	7679                	lui	a2,0xffffe
    80200c02:	963e                	add	a2,a2,a5
    80200c04:	0001c697          	auipc	a3,0x1c
    80200c08:	3fc68693          	addi	a3,a3,1020 # 8021d000 <disk+0x2000>
    80200c0c:	6298                	ld	a4,0(a3)
    80200c0e:	9732                	add	a4,a4,a2
	struct virtio_blk_req *buf0 = &disk.ops[idx[0]];
    80200c10:	0a878593          	addi	a1,a5,168
    80200c14:	95c2                	add	a1,a1,a6
	disk.desc[idx[0]].addr = (uint64)buf0;
    80200c16:	e30c                	sd	a1,0(a4)
	disk.desc[idx[0]].len = sizeof(struct virtio_blk_req);
    80200c18:	6298                	ld	a4,0(a3)
    80200c1a:	9732                	add	a4,a4,a2
    80200c1c:	45c1                	li	a1,16
    80200c1e:	c70c                	sw	a1,8(a4)
	disk.desc[idx[0]].flags = VRING_DESC_F_NEXT;
    80200c20:	6298                	ld	a4,0(a3)
    80200c22:	9732                	add	a4,a4,a2
    80200c24:	4585                	li	a1,1
    80200c26:	00b71623          	sh	a1,12(a4)
	disk.desc[idx[0]].next = idx[1];
    80200c2a:	fa442703          	lw	a4,-92(s0)
    80200c2e:	628c                	ld	a1,0(a3)
    80200c30:	962e                	add	a2,a2,a1
    80200c32:	00e61723          	sh	a4,14(a2) # ffffffffffffe00e <e_bss+0xffffffff7ece000e>
	disk.desc[idx[1]].addr = (uint64)b->data;
    80200c36:	0712                	slli	a4,a4,0x4
    80200c38:	6290                	ld	a2,0(a3)
    80200c3a:	963a                	add	a2,a2,a4
    80200c3c:	02890593          	addi	a1,s2,40
    80200c40:	e20c                	sd	a1,0(a2)
	disk.desc[idx[1]].len = BSIZE;
    80200c42:	6294                	ld	a3,0(a3)
    80200c44:	96ba                	add	a3,a3,a4
    80200c46:	40000613          	li	a2,1024
    80200c4a:	c690                	sw	a2,8(a3)
	if (write)
    80200c4c:	e60c15e3          	bnez	s8,80200ab6 <virtio_disk_rw+0xc8>
		disk.desc[idx[1]].flags =
    80200c50:	0001c697          	auipc	a3,0x1c
    80200c54:	3b068693          	addi	a3,a3,944 # 8021d000 <disk+0x2000>
    80200c58:	6294                	ld	a3,0(a3)
    80200c5a:	96ba                	add	a3,a3,a4
    80200c5c:	4609                	li	a2,2
    80200c5e:	00c69623          	sh	a2,12(a3)
    80200c62:	b595                	j	80200ac6 <virtio_disk_rw+0xd8>
			disk.free[i] = 0;
    80200c64:	00098c23          	sb	zero,24(s3)
		idx[i] = alloc_desc();
    80200c68:	00072023          	sw	zero,0(a4)
		if (idx[i] < 0) {
    80200c6c:	bbc9                	j	80200a3e <virtio_disk_rw+0x50>

0000000080200c6e <virtio_disk_intr>:
	// we've seen this interrupt, which the following line does.
	// this may race with the device writing new entries to
	// the "used" ring, in which case we may process the new
	// completion entries in this interrupt, and have nothing to do
	// in the next interrupt, which is harmless.
	*R(VIRTIO_MMIO_INTERRUPT_ACK) = *R(VIRTIO_MMIO_INTERRUPT_STATUS) & 0x3;
    80200c6e:	10001737          	lui	a4,0x10001
    80200c72:	533c                	lw	a5,96(a4)
    80200c74:	8b8d                	andi	a5,a5,3
    80200c76:	d37c                	sw	a5,100(a4)

	__sync_synchronize();
    80200c78:	0ff0000f          	fence

	// the device increments disk.used->idx when it
	// adds an entry to the used ring.

	while (disk.used_idx != disk.used->idx) {
    80200c7c:	0001c797          	auipc	a5,0x1c
    80200c80:	38478793          	addi	a5,a5,900 # 8021d000 <disk+0x2000>
    80200c84:	6b94                	ld	a3,16(a5)
    80200c86:	0207d703          	lhu	a4,32(a5)
    80200c8a:	0026d783          	lhu	a5,2(a3)
    80200c8e:	04f70d63          	beq	a4,a5,80200ce8 <virtio_disk_intr+0x7a>
		__sync_synchronize();
		int id = disk.used->ring[disk.used_idx % NUM].id;
    80200c92:	0001a617          	auipc	a2,0x1a
    80200c96:	36e60613          	addi	a2,a2,878 # 8021b000 <disk>
    80200c9a:	0001c697          	auipc	a3,0x1c
    80200c9e:	36668693          	addi	a3,a3,870 # 8021d000 <disk+0x2000>
		__sync_synchronize();
    80200ca2:	0ff0000f          	fence
		int id = disk.used->ring[disk.used_idx % NUM].id;
    80200ca6:	6a98                	ld	a4,16(a3)
    80200ca8:	0206d783          	lhu	a5,32(a3)
    80200cac:	8b9d                	andi	a5,a5,7
    80200cae:	078e                	slli	a5,a5,0x3
    80200cb0:	97ba                	add	a5,a5,a4
    80200cb2:	43dc                	lw	a5,4(a5)

		if (disk.info[id].status != 0)
    80200cb4:	20078713          	addi	a4,a5,512
    80200cb8:	0712                	slli	a4,a4,0x4
    80200cba:	9732                	add	a4,a4,a2
    80200cbc:	03074703          	lbu	a4,48(a4) # 10001030 <BASE_ADDRESS-0x701fefd0>
    80200cc0:	e70d                	bnez	a4,80200cea <virtio_disk_intr+0x7c>
			panic("virtio_disk_intr status");

		struct buf *b = disk.info[id].b;
    80200cc2:	20078793          	addi	a5,a5,512
    80200cc6:	0792                	slli	a5,a5,0x4
    80200cc8:	97b2                	add	a5,a5,a2
    80200cca:	779c                	ld	a5,40(a5)
		b->disk = 0; // disk is done with buf
    80200ccc:	0007a223          	sw	zero,4(a5)
		disk.used_idx += 1;
    80200cd0:	0206d783          	lhu	a5,32(a3)
    80200cd4:	2785                	addiw	a5,a5,1
    80200cd6:	17c2                	slli	a5,a5,0x30
    80200cd8:	93c1                	srli	a5,a5,0x30
    80200cda:	02f69023          	sh	a5,32(a3)
	while (disk.used_idx != disk.used->idx) {
    80200cde:	6a98                	ld	a4,16(a3)
    80200ce0:	00275703          	lhu	a4,2(a4)
    80200ce4:	faf71fe3          	bne	a4,a5,80200ca2 <virtio_disk_intr+0x34>
    80200ce8:	8082                	ret
{
    80200cea:	1101                	addi	sp,sp,-32
    80200cec:	ec06                	sd	ra,24(sp)
    80200cee:	e822                	sd	s0,16(sp)
    80200cf0:	e426                	sd	s1,8(sp)
    80200cf2:	1000                	addi	s0,sp,32
			panic("virtio_disk_intr status");
    80200cf4:	00003097          	auipc	ra,0x3
    80200cf8:	6aa080e7          	jalr	1706(ra) # 8020439e <procid>
    80200cfc:	84aa                	mv	s1,a0
    80200cfe:	00003097          	auipc	ra,0x3
    80200d02:	6ba080e7          	jalr	1722(ra) # 802043b8 <threadid>
    80200d06:	12100813          	li	a6,289
    80200d0a:	00007797          	auipc	a5,0x7
    80200d0e:	54e78793          	addi	a5,a5,1358 # 80208258 <e_text+0x258>
    80200d12:	872a                	mv	a4,a0
    80200d14:	86a6                	mv	a3,s1
    80200d16:	00007617          	auipc	a2,0x7
    80200d1a:	2fa60613          	addi	a2,a2,762 # 80208010 <e_text+0x10>
    80200d1e:	45fd                	li	a1,31
    80200d20:	00007517          	auipc	a0,0x7
    80200d24:	65050513          	addi	a0,a0,1616 # 80208370 <e_text+0x370>
    80200d28:	00002097          	auipc	ra,0x2
    80200d2c:	39e080e7          	jalr	926(ra) # 802030c6 <printf>
    80200d30:	00002097          	auipc	ra,0x2
    80200d34:	5ae080e7          	jalr	1454(ra) # 802032de <shutdown>

0000000080200d38 <consputc>:
#include "console.h"
#include "sbi.h"

void consputc(int c)
{
    80200d38:	1141                	addi	sp,sp,-16
    80200d3a:	e406                	sd	ra,8(sp)
    80200d3c:	e022                	sd	s0,0(sp)
    80200d3e:	0800                	addi	s0,sp,16
	console_putchar(c);
    80200d40:	00002097          	auipc	ra,0x2
    80200d44:	56e080e7          	jalr	1390(ra) # 802032ae <console_putchar>
}
    80200d48:	60a2                	ld	ra,8(sp)
    80200d4a:	6402                	ld	s0,0(sp)
    80200d4c:	0141                	addi	sp,sp,16
    80200d4e:	8082                	ret

0000000080200d50 <console_init>:

void console_init()
{
    80200d50:	1141                	addi	sp,sp,-16
    80200d52:	e422                	sd	s0,8(sp)
    80200d54:	0800                	addi	s0,sp,16
	// DO NOTHING
}
    80200d56:	6422                	ld	s0,8(sp)
    80200d58:	0141                	addi	sp,sp,16
    80200d5a:	8082                	ret

0000000080200d5c <consgetc>:

int consgetc()
{
    80200d5c:	1141                	addi	sp,sp,-16
    80200d5e:	e406                	sd	ra,8(sp)
    80200d60:	e022                	sd	s0,0(sp)
    80200d62:	0800                	addi	s0,sp,16
	return console_getchar();
    80200d64:	00002097          	auipc	ra,0x2
    80200d68:	560080e7          	jalr	1376(ra) # 802032c4 <console_getchar>
    80200d6c:	60a2                	ld	ra,8(sp)
    80200d6e:	6402                	ld	s0,0(sp)
    80200d70:	0141                	addi	sp,sp,16
    80200d72:	8082                	ret

0000000080200d74 <clean_bss>:
#include "timer.h"
#include "trap.h"
#include "virtio.h"

void clean_bss()
{
    80200d74:	1141                	addi	sp,sp,-16
    80200d76:	e406                	sd	ra,8(sp)
    80200d78:	e022                	sd	s0,0(sp)
    80200d7a:	0800                	addi	s0,sp,16
	extern char s_bss[];
	extern char e_bss[];
	memset(s_bss, 0, e_bss - s_bss);
    80200d7c:	00019517          	auipc	a0,0x19
    80200d80:	28450513          	addi	a0,a0,644 # 8021a000 <process_queue_data>
    80200d84:	0111d617          	auipc	a2,0x111d
    80200d88:	27c60613          	addi	a2,a2,636 # 8131e000 <e_bss>
    80200d8c:	9e09                	subw	a2,a2,a0
    80200d8e:	4581                	li	a1,0
    80200d90:	fffff097          	auipc	ra,0xfffff
    80200d94:	348080e7          	jalr	840(ra) # 802000d8 <memset>
}
    80200d98:	60a2                	ld	ra,8(sp)
    80200d9a:	6402                	ld	s0,0(sp)
    80200d9c:	0141                	addi	sp,sp,16
    80200d9e:	8082                	ret

0000000080200da0 <main>:

void main()
{
    80200da0:	1141                	addi	sp,sp,-16
    80200da2:	e406                	sd	ra,8(sp)
    80200da4:	e022                	sd	s0,0(sp)
    80200da6:	0800                	addi	s0,sp,16
	clean_bss();
    80200da8:	00000097          	auipc	ra,0x0
    80200dac:	fcc080e7          	jalr	-52(ra) # 80200d74 <clean_bss>
	printf("hello world!\n");
    80200db0:	00007517          	auipc	a0,0x7
    80200db4:	5f850513          	addi	a0,a0,1528 # 802083a8 <e_text+0x3a8>
    80200db8:	00002097          	auipc	ra,0x2
    80200dbc:	30e080e7          	jalr	782(ra) # 802030c6 <printf>
	proc_init();
    80200dc0:	00003097          	auipc	ra,0x3
    80200dc4:	64c080e7          	jalr	1612(ra) # 8020440c <proc_init>
	kinit();
    80200dc8:	00003097          	auipc	ra,0x3
    80200dcc:	4ec080e7          	jalr	1260(ra) # 802042b4 <kinit>
	kvm_init();
    80200dd0:	00002097          	auipc	ra,0x2
    80200dd4:	bd0080e7          	jalr	-1072(ra) # 802029a0 <kvm_init>
	trap_init();
    80200dd8:	fffff097          	auipc	ra,0xfffff
    80200ddc:	53a080e7          	jalr	1338(ra) # 80200312 <trap_init>
	plicinit();
    80200de0:	00003097          	auipc	ra,0x3
    80200de4:	532080e7          	jalr	1330(ra) # 80204312 <plicinit>
	virtio_disk_init();
    80200de8:	00000097          	auipc	ra,0x0
    80200dec:	a3e080e7          	jalr	-1474(ra) # 80200826 <virtio_disk_init>
	binit();
    80200df0:	00000097          	auipc	ra,0x0
    80200df4:	03a080e7          	jalr	58(ra) # 80200e2a <binit>
	fsinit();
    80200df8:	00005097          	auipc	ra,0x5
    80200dfc:	8fe080e7          	jalr	-1794(ra) # 802056f6 <fsinit>
	timer_init();
    80200e00:	00004097          	auipc	ra,0x4
    80200e04:	4f0080e7          	jalr	1264(ra) # 802052f0 <timer_init>
	load_init_app();
    80200e08:	00003097          	auipc	ra,0x3
    80200e0c:	302080e7          	jalr	770(ra) # 8020410a <load_init_app>
	infof("start scheduler!");
    80200e10:	4501                	li	a0,0
    80200e12:	fffff097          	auipc	ra,0xfffff
    80200e16:	49a080e7          	jalr	1178(ra) # 802002ac <dummy>
	show_all_files();
    80200e1a:	00003097          	auipc	ra,0x3
    80200e1e:	ad0080e7          	jalr	-1328(ra) # 802038ea <show_all_files>
	scheduler();
    80200e22:	00004097          	auipc	ra,0x4
    80200e26:	ba8080e7          	jalr	-1112(ra) # 802049ca <scheduler>

0000000080200e2a <binit>:
	struct buf buf[NBUF];
	struct buf head;
} bcache;

void binit()
{
    80200e2a:	1141                	addi	sp,sp,-16
    80200e2c:	e422                	sd	s0,8(sp)
    80200e2e:	0800                	addi	s0,sp,16
	struct buf *b;
	// Create linked list of buffers
	bcache.head.prev = &bcache.head;
    80200e30:	00025797          	auipc	a5,0x25
    80200e34:	1d078793          	addi	a5,a5,464 # 80226000 <bcache+0x8000>
    80200e38:	00025717          	auipc	a4,0x25
    80200e3c:	e7870713          	addi	a4,a4,-392 # 80225cb0 <bcache+0x7cb0>
    80200e40:	cce7b423          	sd	a4,-824(a5)
	bcache.head.next = &bcache.head;
    80200e44:	cce7b823          	sd	a4,-816(a5)
	for (b = bcache.buf; b < bcache.buf + NBUF; b++) {
    80200e48:	0001d797          	auipc	a5,0x1d
    80200e4c:	1b878793          	addi	a5,a5,440 # 8021e000 <bcache>
		b->next = bcache.head.next;
    80200e50:	00025717          	auipc	a4,0x25
    80200e54:	1b070713          	addi	a4,a4,432 # 80226000 <bcache+0x8000>
		b->prev = &bcache.head;
    80200e58:	00025697          	auipc	a3,0x25
    80200e5c:	e5868693          	addi	a3,a3,-424 # 80225cb0 <bcache+0x7cb0>
		b->next = bcache.head.next;
    80200e60:	cd073603          	ld	a2,-816(a4)
    80200e64:	f390                	sd	a2,32(a5)
		b->prev = &bcache.head;
    80200e66:	ef94                	sd	a3,24(a5)
		bcache.head.next->prev = b;
    80200e68:	cd073603          	ld	a2,-816(a4)
    80200e6c:	ee1c                	sd	a5,24(a2)
		bcache.head.next = b;
    80200e6e:	ccf73823          	sd	a5,-816(a4)
	for (b = bcache.buf; b < bcache.buf + NBUF; b++) {
    80200e72:	42878793          	addi	a5,a5,1064
    80200e76:	fed795e3          	bne	a5,a3,80200e60 <binit+0x36>
	}
}
    80200e7a:	6422                	ld	s0,8(sp)
    80200e7c:	0141                	addi	sp,sp,16
    80200e7e:	8082                	ret

0000000080200e80 <bread>:
const int R = 0;
const int W = 1;

// Return a buf with the contents of the indicated block.
struct buf *bread(uint dev, uint blockno)
{
    80200e80:	1101                	addi	sp,sp,-32
    80200e82:	ec06                	sd	ra,24(sp)
    80200e84:	e822                	sd	s0,16(sp)
    80200e86:	e426                	sd	s1,8(sp)
    80200e88:	1000                	addi	s0,sp,32
	for (b = bcache.head.next; b != &bcache.head; b = b->next) {
    80200e8a:	00025797          	auipc	a5,0x25
    80200e8e:	17678793          	addi	a5,a5,374 # 80226000 <bcache+0x8000>
    80200e92:	cd07b483          	ld	s1,-816(a5)
    80200e96:	00025797          	auipc	a5,0x25
    80200e9a:	e1a78793          	addi	a5,a5,-486 # 80225cb0 <bcache+0x7cb0>
    80200e9e:	02f48863          	beq	s1,a5,80200ece <bread+0x4e>
    80200ea2:	873e                	mv	a4,a5
    80200ea4:	a021                	j	80200eac <bread+0x2c>
    80200ea6:	7084                	ld	s1,32(s1)
    80200ea8:	02e48363          	beq	s1,a4,80200ece <bread+0x4e>
		if (b->dev == dev && b->blockno == blockno) {
    80200eac:	449c                	lw	a5,8(s1)
    80200eae:	fea79ce3          	bne	a5,a0,80200ea6 <bread+0x26>
    80200eb2:	44dc                	lw	a5,12(s1)
    80200eb4:	feb799e3          	bne	a5,a1,80200ea6 <bread+0x26>
			b->refcnt++;
    80200eb8:	489c                	lw	a5,16(s1)
    80200eba:	2785                	addiw	a5,a5,1
    80200ebc:	c89c                	sw	a5,16(s1)
	struct buf *b;
	b = bget(dev, blockno);
	if (!b->valid) {
    80200ebe:	409c                	lw	a5,0(s1)
    80200ec0:	c7a1                	beqz	a5,80200f08 <bread+0x88>
		virtio_disk_rw(b, R);
		b->valid = 1;
	}
	return b;
}
    80200ec2:	8526                	mv	a0,s1
    80200ec4:	60e2                	ld	ra,24(sp)
    80200ec6:	6442                	ld	s0,16(sp)
    80200ec8:	64a2                	ld	s1,8(sp)
    80200eca:	6105                	addi	sp,sp,32
    80200ecc:	8082                	ret
	for (b = bcache.head.prev; b != &bcache.head; b = b->prev) {
    80200ece:	00025797          	auipc	a5,0x25
    80200ed2:	13278793          	addi	a5,a5,306 # 80226000 <bcache+0x8000>
    80200ed6:	cc87b483          	ld	s1,-824(a5)
    80200eda:	00025797          	auipc	a5,0x25
    80200ede:	dd678793          	addi	a5,a5,-554 # 80225cb0 <bcache+0x7cb0>
    80200ee2:	02f48c63          	beq	s1,a5,80200f1a <bread+0x9a>
		if (b->refcnt == 0) {
    80200ee6:	489c                	lw	a5,16(s1)
    80200ee8:	cb91                	beqz	a5,80200efc <bread+0x7c>
	for (b = bcache.head.prev; b != &bcache.head; b = b->prev) {
    80200eea:	00025717          	auipc	a4,0x25
    80200eee:	dc670713          	addi	a4,a4,-570 # 80225cb0 <bcache+0x7cb0>
    80200ef2:	6c84                	ld	s1,24(s1)
    80200ef4:	02e48363          	beq	s1,a4,80200f1a <bread+0x9a>
		if (b->refcnt == 0) {
    80200ef8:	489c                	lw	a5,16(s1)
    80200efa:	ffe5                	bnez	a5,80200ef2 <bread+0x72>
			b->dev = dev;
    80200efc:	c488                	sw	a0,8(s1)
			b->blockno = blockno;
    80200efe:	c4cc                	sw	a1,12(s1)
			b->valid = 0;
    80200f00:	0004a023          	sw	zero,0(s1) # 10001000 <BASE_ADDRESS-0x701ff000>
			b->refcnt = 1;
    80200f04:	4785                	li	a5,1
    80200f06:	c89c                	sw	a5,16(s1)
		virtio_disk_rw(b, R);
    80200f08:	4581                	li	a1,0
    80200f0a:	8526                	mv	a0,s1
    80200f0c:	00000097          	auipc	ra,0x0
    80200f10:	ae2080e7          	jalr	-1310(ra) # 802009ee <virtio_disk_rw>
		b->valid = 1;
    80200f14:	4785                	li	a5,1
    80200f16:	c09c                	sw	a5,0(s1)
	return b;
    80200f18:	b76d                	j	80200ec2 <bread+0x42>
	panic("bget: no buffers");
    80200f1a:	00003097          	auipc	ra,0x3
    80200f1e:	484080e7          	jalr	1156(ra) # 8020439e <procid>
    80200f22:	84aa                	mv	s1,a0
    80200f24:	00003097          	auipc	ra,0x3
    80200f28:	494080e7          	jalr	1172(ra) # 802043b8 <threadid>
    80200f2c:	04100813          	li	a6,65
    80200f30:	00007797          	auipc	a5,0x7
    80200f34:	48878793          	addi	a5,a5,1160 # 802083b8 <e_text+0x3b8>
    80200f38:	872a                	mv	a4,a0
    80200f3a:	86a6                	mv	a3,s1
    80200f3c:	00007617          	auipc	a2,0x7
    80200f40:	0d460613          	addi	a2,a2,212 # 80208010 <e_text+0x10>
    80200f44:	45fd                	li	a1,31
    80200f46:	00007517          	auipc	a0,0x7
    80200f4a:	48250513          	addi	a0,a0,1154 # 802083c8 <e_text+0x3c8>
    80200f4e:	00002097          	auipc	ra,0x2
    80200f52:	178080e7          	jalr	376(ra) # 802030c6 <printf>
    80200f56:	00002097          	auipc	ra,0x2
    80200f5a:	388080e7          	jalr	904(ra) # 802032de <shutdown>

0000000080200f5e <bwrite>:

// Write b's contents to disk.
void bwrite(struct buf *b)
{
    80200f5e:	1141                	addi	sp,sp,-16
    80200f60:	e406                	sd	ra,8(sp)
    80200f62:	e022                	sd	s0,0(sp)
    80200f64:	0800                	addi	s0,sp,16
	virtio_disk_rw(b, W);
    80200f66:	4585                	li	a1,1
    80200f68:	00000097          	auipc	ra,0x0
    80200f6c:	a86080e7          	jalr	-1402(ra) # 802009ee <virtio_disk_rw>
}
    80200f70:	60a2                	ld	ra,8(sp)
    80200f72:	6402                	ld	s0,0(sp)
    80200f74:	0141                	addi	sp,sp,16
    80200f76:	8082                	ret

0000000080200f78 <brelse>:

// Release a buffer.
// Move to the head of the most-recently-used list.
void brelse(struct buf *b)
{
    80200f78:	1141                	addi	sp,sp,-16
    80200f7a:	e422                	sd	s0,8(sp)
    80200f7c:	0800                	addi	s0,sp,16
	b->refcnt--;
    80200f7e:	491c                	lw	a5,16(a0)
    80200f80:	37fd                	addiw	a5,a5,-1
    80200f82:	0007871b          	sext.w	a4,a5
    80200f86:	c91c                	sw	a5,16(a0)
	if (b->refcnt == 0) {
    80200f88:	eb05                	bnez	a4,80200fb8 <brelse+0x40>
		// no one is waiting for it.
		b->next->prev = b->prev;
    80200f8a:	711c                	ld	a5,32(a0)
    80200f8c:	6d18                	ld	a4,24(a0)
    80200f8e:	ef98                	sd	a4,24(a5)
		b->prev->next = b->next;
    80200f90:	6d1c                	ld	a5,24(a0)
    80200f92:	7118                	ld	a4,32(a0)
    80200f94:	f398                	sd	a4,32(a5)
		b->next = bcache.head.next;
    80200f96:	00025797          	auipc	a5,0x25
    80200f9a:	06a78793          	addi	a5,a5,106 # 80226000 <bcache+0x8000>
    80200f9e:	cd07b703          	ld	a4,-816(a5)
    80200fa2:	f118                	sd	a4,32(a0)
		b->prev = &bcache.head;
    80200fa4:	00025717          	auipc	a4,0x25
    80200fa8:	d0c70713          	addi	a4,a4,-756 # 80225cb0 <bcache+0x7cb0>
    80200fac:	ed18                	sd	a4,24(a0)
		bcache.head.next->prev = b;
    80200fae:	cd07b703          	ld	a4,-816(a5)
    80200fb2:	ef08                	sd	a0,24(a4)
		bcache.head.next = b;
    80200fb4:	cca7b823          	sd	a0,-816(a5)
	}
}
    80200fb8:	6422                	ld	s0,8(sp)
    80200fba:	0141                	addi	sp,sp,16
    80200fbc:	8082                	ret

0000000080200fbe <bpin>:

void bpin(struct buf *b)
{
    80200fbe:	1141                	addi	sp,sp,-16
    80200fc0:	e422                	sd	s0,8(sp)
    80200fc2:	0800                	addi	s0,sp,16
	b->refcnt++;
    80200fc4:	491c                	lw	a5,16(a0)
    80200fc6:	2785                	addiw	a5,a5,1
    80200fc8:	c91c                	sw	a5,16(a0)
}
    80200fca:	6422                	ld	s0,8(sp)
    80200fcc:	0141                	addi	sp,sp,16
    80200fce:	8082                	ret

0000000080200fd0 <bunpin>:

void bunpin(struct buf *b)
{
    80200fd0:	1141                	addi	sp,sp,-16
    80200fd2:	e422                	sd	s0,8(sp)
    80200fd4:	0800                	addi	s0,sp,16
	b->refcnt--;
    80200fd6:	491c                	lw	a5,16(a0)
    80200fd8:	37fd                	addiw	a5,a5,-1
    80200fda:	c91c                	sw	a5,16(a0)
}
    80200fdc:	6422                	ld	s0,8(sp)
    80200fde:	0141                	addi	sp,sp,16
    80200fe0:	8082                	ret

0000000080200fe2 <console_write>:
#include "syscall_ids.h"
#include "timer.h"
#include "trap.h"

uint64 console_write(uint64 va, uint64 len)
{
    80200fe2:	710d                	addi	sp,sp,-352
    80200fe4:	ee86                	sd	ra,344(sp)
    80200fe6:	eaa2                	sd	s0,336(sp)
    80200fe8:	e6a6                	sd	s1,328(sp)
    80200fea:	e2ca                	sd	s2,320(sp)
    80200fec:	fe4e                	sd	s3,312(sp)
    80200fee:	1280                	addi	s0,sp,352
    80200ff0:	84aa                	mv	s1,a0
    80200ff2:	89ae                	mv	s3,a1
	struct proc *p = curr_proc();
    80200ff4:	00003097          	auipc	ra,0x3
    80200ff8:	3ea080e7          	jalr	1002(ra) # 802043de <curr_proc>
	char str[MAX_STR_LEN];
	int size = copyinstr(p->pagetable, str, va, MIN(len, MAX_STR_LEN));
    80200ffc:	86ce                	mv	a3,s3
    80200ffe:	12c00793          	li	a5,300
    80201002:	0137f463          	bgeu	a5,s3,8020100a <console_write+0x28>
    80201006:	12c00693          	li	a3,300
    8020100a:	8626                	mv	a2,s1
    8020100c:	ea040593          	addi	a1,s0,-352
    80201010:	6508                	ld	a0,8(a0)
    80201012:	00002097          	auipc	ra,0x2
    80201016:	ea4080e7          	jalr	-348(ra) # 80202eb6 <copyinstr>
    8020101a:	892a                	mv	s2,a0
	tracef("write size = %d", size);
    8020101c:	85aa                	mv	a1,a0
    8020101e:	4501                	li	a0,0
    80201020:	fffff097          	auipc	ra,0xfffff
    80201024:	28c080e7          	jalr	652(ra) # 802002ac <dummy>
	for (int i = 0; i < size; ++i) {
    80201028:	03205463          	blez	s2,80201050 <console_write+0x6e>
    8020102c:	ea040493          	addi	s1,s0,-352
    80201030:	397d                	addiw	s2,s2,-1
    80201032:	1902                	slli	s2,s2,0x20
    80201034:	02095913          	srli	s2,s2,0x20
    80201038:	ea140793          	addi	a5,s0,-351
    8020103c:	993e                	add	s2,s2,a5
		console_putchar(str[i]);
    8020103e:	0004c503          	lbu	a0,0(s1)
    80201042:	00002097          	auipc	ra,0x2
    80201046:	26c080e7          	jalr	620(ra) # 802032ae <console_putchar>
    8020104a:	0485                	addi	s1,s1,1
	for (int i = 0; i < size; ++i) {
    8020104c:	ff2499e3          	bne	s1,s2,8020103e <console_write+0x5c>
	}
	return len;
}
    80201050:	854e                	mv	a0,s3
    80201052:	60f6                	ld	ra,344(sp)
    80201054:	6456                	ld	s0,336(sp)
    80201056:	64b6                	ld	s1,328(sp)
    80201058:	6916                	ld	s2,320(sp)
    8020105a:	79f2                	ld	s3,312(sp)
    8020105c:	6135                	addi	sp,sp,352
    8020105e:	8082                	ret

0000000080201060 <console_read>:

uint64 console_read(uint64 va, uint64 len)
{
    80201060:	7149                	addi	sp,sp,-368
    80201062:	f686                	sd	ra,360(sp)
    80201064:	f2a2                	sd	s0,352(sp)
    80201066:	eea6                	sd	s1,344(sp)
    80201068:	eaca                	sd	s2,336(sp)
    8020106a:	e6ce                	sd	s3,328(sp)
    8020106c:	e2d2                	sd	s4,320(sp)
    8020106e:	fe56                	sd	s5,312(sp)
    80201070:	1a80                	addi	s0,sp,368
    80201072:	8aaa                	mv	s5,a0
    80201074:	89ae                	mv	s3,a1
	struct proc *p = curr_proc();
    80201076:	00003097          	auipc	ra,0x3
    8020107a:	368080e7          	jalr	872(ra) # 802043de <curr_proc>
    8020107e:	8a2a                	mv	s4,a0
	char str[MAX_STR_LEN];
	tracef("read size = %d", len);
    80201080:	85ce                	mv	a1,s3
    80201082:	4501                	li	a0,0
    80201084:	fffff097          	auipc	ra,0xfffff
    80201088:	228080e7          	jalr	552(ra) # 802002ac <dummy>
	for (int i = 0; i < len; ++i) {
    8020108c:	00098f63          	beqz	s3,802010aa <console_read+0x4a>
    80201090:	e9040493          	addi	s1,s0,-368
    80201094:	01348933          	add	s2,s1,s3
		int c = consgetc();
    80201098:	00000097          	auipc	ra,0x0
    8020109c:	cc4080e7          	jalr	-828(ra) # 80200d5c <consgetc>
		str[i] = c;
    802010a0:	00a48023          	sb	a0,0(s1)
    802010a4:	0485                	addi	s1,s1,1
	for (int i = 0; i < len; ++i) {
    802010a6:	ff2499e3          	bne	s1,s2,80201098 <console_read+0x38>
	}
	copyout(p->pagetable, va, str, len);
    802010aa:	86ce                	mv	a3,s3
    802010ac:	e9040613          	addi	a2,s0,-368
    802010b0:	85d6                	mv	a1,s5
    802010b2:	008a3503          	ld	a0,8(s4)
    802010b6:	00002097          	auipc	ra,0x2
    802010ba:	ce6080e7          	jalr	-794(ra) # 80202d9c <copyout>
	return len;
}
    802010be:	854e                	mv	a0,s3
    802010c0:	70b6                	ld	ra,360(sp)
    802010c2:	7416                	ld	s0,352(sp)
    802010c4:	64f6                	ld	s1,344(sp)
    802010c6:	6956                	ld	s2,336(sp)
    802010c8:	69b6                	ld	s3,328(sp)
    802010ca:	6a16                	ld	s4,320(sp)
    802010cc:	7af2                	ld	s5,312(sp)
    802010ce:	6175                	addi	sp,sp,368
    802010d0:	8082                	ret

00000000802010d2 <sys_write>:

uint64 sys_write(int fd, uint64 va, uint64 len)
{
	if (fd < 0 || fd > FD_BUFFER_SIZE)
    802010d2:	4741                	li	a4,16
    802010d4:	10a76363          	bltu	a4,a0,802011da <sys_write+0x108>
{
    802010d8:	7179                	addi	sp,sp,-48
    802010da:	f406                	sd	ra,40(sp)
    802010dc:	f022                	sd	s0,32(sp)
    802010de:	ec26                	sd	s1,24(sp)
    802010e0:	e84a                	sd	s2,16(sp)
    802010e2:	e44e                	sd	s3,8(sp)
    802010e4:	e052                	sd	s4,0(sp)
    802010e6:	1800                	addi	s0,sp,48
    802010e8:	84aa                	mv	s1,a0
    802010ea:	8a32                	mv	s4,a2
    802010ec:	892e                	mv	s2,a1
		return -1;
	struct proc *p = curr_proc();
    802010ee:	00003097          	auipc	ra,0x3
    802010f2:	2f0080e7          	jalr	752(ra) # 802043de <curr_proc>
	struct file *f = p->files[fd];
    802010f6:	00648793          	addi	a5,s1,6
    802010fa:	078e                	slli	a5,a5,0x3
    802010fc:	97aa                	add	a5,a5,a0
    802010fe:	0007b983          	ld	s3,0(a5)
	if (f == NULL) {
    80201102:	06098163          	beqz	s3,80201164 <sys_write+0x92>
		errorf("invalid fd %d\n", fd);
		return -1;
	}
	switch (f->type) {
    80201106:	0009a783          	lw	a5,0(s3)
    8020110a:	4709                	li	a4,2
    8020110c:	0ae78f63          	beq	a5,a4,802011ca <sys_write+0xf8>
    80201110:	470d                	li	a4,3
    80201112:	08e78463          	beq	a5,a4,8020119a <sys_write+0xc8>
    80201116:	4705                	li	a4,1
    80201118:	08e78f63          	beq	a5,a4,802011b6 <sys_write+0xe4>
	case FD_PIPE:
		return pipewrite(f->pipe, va, len);
	case FD_INODE:
		return inodewrite(f, va, len);
	default:
		panic("unknown file type %d\n", f->type);
    8020111c:	00003097          	auipc	ra,0x3
    80201120:	282080e7          	jalr	642(ra) # 8020439e <procid>
    80201124:	84aa                	mv	s1,a0
    80201126:	00003097          	auipc	ra,0x3
    8020112a:	292080e7          	jalr	658(ra) # 802043b8 <threadid>
    8020112e:	0009a883          	lw	a7,0(s3)
    80201132:	03500813          	li	a6,53
    80201136:	00007797          	auipc	a5,0x7
    8020113a:	2ea78793          	addi	a5,a5,746 # 80208420 <e_text+0x420>
    8020113e:	872a                	mv	a4,a0
    80201140:	86a6                	mv	a3,s1
    80201142:	00007617          	auipc	a2,0x7
    80201146:	ece60613          	addi	a2,a2,-306 # 80208010 <e_text+0x10>
    8020114a:	45fd                	li	a1,31
    8020114c:	00007517          	auipc	a0,0x7
    80201150:	2e450513          	addi	a0,a0,740 # 80208430 <e_text+0x430>
    80201154:	00002097          	auipc	ra,0x2
    80201158:	f72080e7          	jalr	-142(ra) # 802030c6 <printf>
    8020115c:	00002097          	auipc	ra,0x2
    80201160:	182080e7          	jalr	386(ra) # 802032de <shutdown>
		errorf("invalid fd %d\n", fd);
    80201164:	00003097          	auipc	ra,0x3
    80201168:	23a080e7          	jalr	570(ra) # 8020439e <procid>
    8020116c:	892a                	mv	s2,a0
    8020116e:	00003097          	auipc	ra,0x3
    80201172:	24a080e7          	jalr	586(ra) # 802043b8 <threadid>
    80201176:	87a6                	mv	a5,s1
    80201178:	872a                	mv	a4,a0
    8020117a:	86ca                	mv	a3,s2
    8020117c:	00007617          	auipc	a2,0x7
    80201180:	f1460613          	addi	a2,a2,-236 # 80208090 <e_text+0x90>
    80201184:	45fd                	li	a1,31
    80201186:	00007517          	auipc	a0,0x7
    8020118a:	27250513          	addi	a0,a0,626 # 802083f8 <e_text+0x3f8>
    8020118e:	00002097          	auipc	ra,0x2
    80201192:	f38080e7          	jalr	-200(ra) # 802030c6 <printf>
		return -1;
    80201196:	557d                	li	a0,-1
    80201198:	a039                	j	802011a6 <sys_write+0xd4>
		return console_write(va, len);
    8020119a:	85d2                	mv	a1,s4
    8020119c:	854a                	mv	a0,s2
    8020119e:	00000097          	auipc	ra,0x0
    802011a2:	e44080e7          	jalr	-444(ra) # 80200fe2 <console_write>
	}
}
    802011a6:	70a2                	ld	ra,40(sp)
    802011a8:	7402                	ld	s0,32(sp)
    802011aa:	64e2                	ld	s1,24(sp)
    802011ac:	6942                	ld	s2,16(sp)
    802011ae:	69a2                	ld	s3,8(sp)
    802011b0:	6a02                	ld	s4,0(sp)
    802011b2:	6145                	addi	sp,sp,48
    802011b4:	8082                	ret
		return pipewrite(f->pipe, va, len);
    802011b6:	000a061b          	sext.w	a2,s4
    802011ba:	85ca                	mv	a1,s2
    802011bc:	0109b503          	ld	a0,16(s3)
    802011c0:	00003097          	auipc	ra,0x3
    802011c4:	aa2080e7          	jalr	-1374(ra) # 80203c62 <pipewrite>
    802011c8:	bff9                	j	802011a6 <sys_write+0xd4>
		return inodewrite(f, va, len);
    802011ca:	8652                	mv	a2,s4
    802011cc:	85ca                	mv	a1,s2
    802011ce:	854e                	mv	a0,s3
    802011d0:	00003097          	auipc	ra,0x3
    802011d4:	974080e7          	jalr	-1676(ra) # 80203b44 <inodewrite>
    802011d8:	b7f9                	j	802011a6 <sys_write+0xd4>
		return -1;
    802011da:	557d                	li	a0,-1
}
    802011dc:	8082                	ret

00000000802011de <sys_read>:

uint64 sys_read(int fd, uint64 va, uint64 len)
{
	if (fd < 0 || fd > FD_BUFFER_SIZE)
    802011de:	4741                	li	a4,16
    802011e0:	10a76363          	bltu	a4,a0,802012e6 <sys_read+0x108>
{
    802011e4:	7179                	addi	sp,sp,-48
    802011e6:	f406                	sd	ra,40(sp)
    802011e8:	f022                	sd	s0,32(sp)
    802011ea:	ec26                	sd	s1,24(sp)
    802011ec:	e84a                	sd	s2,16(sp)
    802011ee:	e44e                	sd	s3,8(sp)
    802011f0:	e052                	sd	s4,0(sp)
    802011f2:	1800                	addi	s0,sp,48
    802011f4:	84aa                	mv	s1,a0
    802011f6:	8a32                	mv	s4,a2
    802011f8:	892e                	mv	s2,a1
		return -1;
	struct proc *p = curr_proc();
    802011fa:	00003097          	auipc	ra,0x3
    802011fe:	1e4080e7          	jalr	484(ra) # 802043de <curr_proc>
	struct file *f = p->files[fd];
    80201202:	00648793          	addi	a5,s1,6
    80201206:	078e                	slli	a5,a5,0x3
    80201208:	97aa                	add	a5,a5,a0
    8020120a:	0007b983          	ld	s3,0(a5)
	if (f == NULL) {
    8020120e:	06098163          	beqz	s3,80201270 <sys_read+0x92>
		errorf("invalid fd %d\n", fd);
		return -1;
	}
	switch (f->type) {
    80201212:	0009a783          	lw	a5,0(s3)
    80201216:	4709                	li	a4,2
    80201218:	0ae78f63          	beq	a5,a4,802012d6 <sys_read+0xf8>
    8020121c:	470d                	li	a4,3
    8020121e:	08e78463          	beq	a5,a4,802012a6 <sys_read+0xc8>
    80201222:	4705                	li	a4,1
    80201224:	08e78f63          	beq	a5,a4,802012c2 <sys_read+0xe4>
	case FD_PIPE:
		return piperead(f->pipe, va, len);
	case FD_INODE:
		return inoderead(f, va, len);
	default:
		panic("unknown file type %d\n", f->type);
    80201228:	00003097          	auipc	ra,0x3
    8020122c:	176080e7          	jalr	374(ra) # 8020439e <procid>
    80201230:	84aa                	mv	s1,a0
    80201232:	00003097          	auipc	ra,0x3
    80201236:	186080e7          	jalr	390(ra) # 802043b8 <threadid>
    8020123a:	0009a883          	lw	a7,0(s3)
    8020123e:	04b00813          	li	a6,75
    80201242:	00007797          	auipc	a5,0x7
    80201246:	1de78793          	addi	a5,a5,478 # 80208420 <e_text+0x420>
    8020124a:	872a                	mv	a4,a0
    8020124c:	86a6                	mv	a3,s1
    8020124e:	00007617          	auipc	a2,0x7
    80201252:	dc260613          	addi	a2,a2,-574 # 80208010 <e_text+0x10>
    80201256:	45fd                	li	a1,31
    80201258:	00007517          	auipc	a0,0x7
    8020125c:	1d850513          	addi	a0,a0,472 # 80208430 <e_text+0x430>
    80201260:	00002097          	auipc	ra,0x2
    80201264:	e66080e7          	jalr	-410(ra) # 802030c6 <printf>
    80201268:	00002097          	auipc	ra,0x2
    8020126c:	076080e7          	jalr	118(ra) # 802032de <shutdown>
		errorf("invalid fd %d\n", fd);
    80201270:	00003097          	auipc	ra,0x3
    80201274:	12e080e7          	jalr	302(ra) # 8020439e <procid>
    80201278:	892a                	mv	s2,a0
    8020127a:	00003097          	auipc	ra,0x3
    8020127e:	13e080e7          	jalr	318(ra) # 802043b8 <threadid>
    80201282:	87a6                	mv	a5,s1
    80201284:	872a                	mv	a4,a0
    80201286:	86ca                	mv	a3,s2
    80201288:	00007617          	auipc	a2,0x7
    8020128c:	e0860613          	addi	a2,a2,-504 # 80208090 <e_text+0x90>
    80201290:	45fd                	li	a1,31
    80201292:	00007517          	auipc	a0,0x7
    80201296:	16650513          	addi	a0,a0,358 # 802083f8 <e_text+0x3f8>
    8020129a:	00002097          	auipc	ra,0x2
    8020129e:	e2c080e7          	jalr	-468(ra) # 802030c6 <printf>
		return -1;
    802012a2:	557d                	li	a0,-1
    802012a4:	a039                	j	802012b2 <sys_read+0xd4>
		return console_read(va, len);
    802012a6:	85d2                	mv	a1,s4
    802012a8:	854a                	mv	a0,s2
    802012aa:	00000097          	auipc	ra,0x0
    802012ae:	db6080e7          	jalr	-586(ra) # 80201060 <console_read>
	}
}
    802012b2:	70a2                	ld	ra,40(sp)
    802012b4:	7402                	ld	s0,32(sp)
    802012b6:	64e2                	ld	s1,24(sp)
    802012b8:	6942                	ld	s2,16(sp)
    802012ba:	69a2                	ld	s3,8(sp)
    802012bc:	6a02                	ld	s4,0(sp)
    802012be:	6145                	addi	sp,sp,48
    802012c0:	8082                	ret
		return piperead(f->pipe, va, len);
    802012c2:	000a061b          	sext.w	a2,s4
    802012c6:	85ca                	mv	a1,s2
    802012c8:	0109b503          	ld	a0,16(s3)
    802012cc:	00003097          	auipc	ra,0x3
    802012d0:	af6080e7          	jalr	-1290(ra) # 80203dc2 <piperead>
    802012d4:	bff9                	j	802012b2 <sys_read+0xd4>
		return inoderead(f, va, len);
    802012d6:	8652                	mv	a2,s4
    802012d8:	85ca                	mv	a1,s2
    802012da:	854e                	mv	a0,s3
    802012dc:	00003097          	auipc	ra,0x3
    802012e0:	8b2080e7          	jalr	-1870(ra) # 80203b8e <inoderead>
    802012e4:	b7f9                	j	802012b2 <sys_read+0xd4>
		return -1;
    802012e6:	557d                	li	a0,-1
}
    802012e8:	8082                	ret

00000000802012ea <sys_exit>:

__attribute__((noreturn)) void sys_exit(int code)
{
    802012ea:	1141                	addi	sp,sp,-16
    802012ec:	e406                	sd	ra,8(sp)
    802012ee:	e022                	sd	s0,0(sp)
    802012f0:	0800                	addi	s0,sp,16
	exit(code);
    802012f2:	00004097          	auipc	ra,0x4
    802012f6:	eb2080e7          	jalr	-334(ra) # 802051a4 <exit>

00000000802012fa <sys_sched_yield>:
	__builtin_unreachable();
}

uint64 sys_sched_yield()
{
    802012fa:	1141                	addi	sp,sp,-16
    802012fc:	e406                	sd	ra,8(sp)
    802012fe:	e022                	sd	s0,0(sp)
    80201300:	0800                	addi	s0,sp,16
	yield();
    80201302:	00003097          	auipc	ra,0x3
    80201306:	7f2080e7          	jalr	2034(ra) # 80204af4 <yield>
	return 0;
}
    8020130a:	4501                	li	a0,0
    8020130c:	60a2                	ld	ra,8(sp)
    8020130e:	6402                	ld	s0,0(sp)
    80201310:	0141                	addi	sp,sp,16
    80201312:	8082                	ret

0000000080201314 <sys_gettimeofday>:

uint64 sys_gettimeofday(uint64 val, int _tz)
{
    80201314:	7179                	addi	sp,sp,-48
    80201316:	f406                	sd	ra,40(sp)
    80201318:	f022                	sd	s0,32(sp)
    8020131a:	ec26                	sd	s1,24(sp)
    8020131c:	e84a                	sd	s2,16(sp)
    8020131e:	1800                	addi	s0,sp,48
    80201320:	892a                	mv	s2,a0
	struct proc *p = curr_proc();
    80201322:	00003097          	auipc	ra,0x3
    80201326:	0bc080e7          	jalr	188(ra) # 802043de <curr_proc>
    8020132a:	84aa                	mv	s1,a0
	uint64 cycle = get_cycle();
    8020132c:	00004097          	auipc	ra,0x4
    80201330:	f90080e7          	jalr	-112(ra) # 802052bc <get_cycle>
	TimeVal t;
	t.sec = cycle / CPU_FREQ;
    80201334:	00bec7b7          	lui	a5,0xbec
    80201338:	c2078793          	addi	a5,a5,-992 # bebc20 <BASE_ADDRESS-0x7f6143e0>
    8020133c:	02f55733          	divu	a4,a0,a5
    80201340:	fce43823          	sd	a4,-48(s0)
	t.usec = (cycle % CPU_FREQ) * 1000000 / CPU_FREQ;
    80201344:	02f57533          	remu	a0,a0,a5
    80201348:	000f4737          	lui	a4,0xf4
    8020134c:	24070713          	addi	a4,a4,576 # f4240 <BASE_ADDRESS-0x8010bdc0>
    80201350:	02e50533          	mul	a0,a0,a4
    80201354:	02f55533          	divu	a0,a0,a5
    80201358:	fca43c23          	sd	a0,-40(s0)
	copyout(p->pagetable, val, (char *)&t, sizeof(TimeVal));
    8020135c:	46c1                	li	a3,16
    8020135e:	fd040613          	addi	a2,s0,-48
    80201362:	85ca                	mv	a1,s2
    80201364:	6488                	ld	a0,8(s1)
    80201366:	00002097          	auipc	ra,0x2
    8020136a:	a36080e7          	jalr	-1482(ra) # 80202d9c <copyout>
	return 0;
}
    8020136e:	4501                	li	a0,0
    80201370:	70a2                	ld	ra,40(sp)
    80201372:	7402                	ld	s0,32(sp)
    80201374:	64e2                	ld	s1,24(sp)
    80201376:	6942                	ld	s2,16(sp)
    80201378:	6145                	addi	sp,sp,48
    8020137a:	8082                	ret

000000008020137c <sys_getpid>:

uint64 sys_getpid()
{
    8020137c:	1141                	addi	sp,sp,-16
    8020137e:	e406                	sd	ra,8(sp)
    80201380:	e022                	sd	s0,0(sp)
    80201382:	0800                	addi	s0,sp,16
	return curr_proc()->pid;
    80201384:	00003097          	auipc	ra,0x3
    80201388:	05a080e7          	jalr	90(ra) # 802043de <curr_proc>
}
    8020138c:	4148                	lw	a0,4(a0)
    8020138e:	60a2                	ld	ra,8(sp)
    80201390:	6402                	ld	s0,0(sp)
    80201392:	0141                	addi	sp,sp,16
    80201394:	8082                	ret

0000000080201396 <sys_getppid>:

uint64 sys_getppid()
{
    80201396:	1141                	addi	sp,sp,-16
    80201398:	e406                	sd	ra,8(sp)
    8020139a:	e022                	sd	s0,0(sp)
    8020139c:	0800                	addi	s0,sp,16
	struct proc *p = curr_proc();
    8020139e:	00003097          	auipc	ra,0x3
    802013a2:	040080e7          	jalr	64(ra) # 802043de <curr_proc>
	return p->parent == NULL ? IDLE_PID : p->parent->pid;
    802013a6:	711c                	ld	a5,32(a0)
    802013a8:	4501                	li	a0,0
    802013aa:	c391                	beqz	a5,802013ae <sys_getppid+0x18>
    802013ac:	43c8                	lw	a0,4(a5)
}
    802013ae:	60a2                	ld	ra,8(sp)
    802013b0:	6402                	ld	s0,0(sp)
    802013b2:	0141                	addi	sp,sp,16
    802013b4:	8082                	ret

00000000802013b6 <sys_clone>:

uint64 sys_clone()
{
    802013b6:	1141                	addi	sp,sp,-16
    802013b8:	e406                	sd	ra,8(sp)
    802013ba:	e022                	sd	s0,0(sp)
    802013bc:	0800                	addi	s0,sp,16
	debugf("fork!");
    802013be:	4501                	li	a0,0
    802013c0:	fffff097          	auipc	ra,0xfffff
    802013c4:	eec080e7          	jalr	-276(ra) # 802002ac <dummy>
	return fork();
    802013c8:	00004097          	auipc	ra,0x4
    802013cc:	88c080e7          	jalr	-1908(ra) # 80204c54 <fork>
}
    802013d0:	60a2                	ld	ra,8(sp)
    802013d2:	6402                	ld	s0,0(sp)
    802013d4:	0141                	addi	sp,sp,16
    802013d6:	8082                	ret

00000000802013d8 <sys_exec>:
	uint64 *addr = (uint64 *)useraddr(pagetable, va);
	return *addr;
}

uint64 sys_exec(uint64 path, uint64 uargv)
{
    802013d8:	d9010113          	addi	sp,sp,-624 # 80219d90 <boot_stack+0xfd90>
    802013dc:	26113423          	sd	ra,616(sp)
    802013e0:	26813023          	sd	s0,608(sp)
    802013e4:	24913c23          	sd	s1,600(sp)
    802013e8:	25213823          	sd	s2,592(sp)
    802013ec:	25313423          	sd	s3,584(sp)
    802013f0:	25413023          	sd	s4,576(sp)
    802013f4:	23513c23          	sd	s5,568(sp)
    802013f8:	1c80                	addi	s0,sp,624
    802013fa:	84aa                	mv	s1,a0
    802013fc:	8aae                	mv	s5,a1
	struct proc *p = curr_proc();
    802013fe:	00003097          	auipc	ra,0x3
    80201402:	fe0080e7          	jalr	-32(ra) # 802043de <curr_proc>
    80201406:	8a2a                	mv	s4,a0
	char name[MAX_STR_LEN];
	copyinstr(p->pagetable, name, path, MAX_STR_LEN);
    80201408:	12c00693          	li	a3,300
    8020140c:	8626                	mv	a2,s1
    8020140e:	e9040593          	addi	a1,s0,-368
    80201412:	6508                	ld	a0,8(a0)
    80201414:	00002097          	auipc	ra,0x2
    80201418:	aa2080e7          	jalr	-1374(ra) # 80202eb6 <copyinstr>
	uint64 arg;
	static char strpool[MAX_ARG_NUM][MAX_STR_LEN];
	char *argv[MAX_ARG_NUM];
	int i;
	for (i = 0; uargv && (arg = fetchaddr(p->pagetable, uargv));
    8020141c:	080a8563          	beqz	s5,802014a6 <sys_exec+0xce>
    80201420:	00025917          	auipc	s2,0x25
    80201424:	cb890913          	addi	s2,s2,-840 # 802260d8 <strpool.1656>
    80201428:	84d6                	mv	s1,s5
    8020142a:	4981                	li	s3,0
	uint64 *addr = (uint64 *)useraddr(pagetable, va);
    8020142c:	85a6                	mv	a1,s1
    8020142e:	008a3503          	ld	a0,8(s4)
    80201432:	00001097          	auipc	ra,0x1
    80201436:	344080e7          	jalr	836(ra) # 80202776 <useraddr>
	return *addr;
    8020143a:	6110                	ld	a2,0(a0)
	for (i = 0; uargv && (arg = fetchaddr(p->pagetable, uargv));
    8020143c:	c615                	beqz	a2,80201468 <sys_exec+0x90>
	     uargv += sizeof(char *), i++) {
		copyinstr(p->pagetable, (char *)strpool[i], arg, MAX_STR_LEN);
    8020143e:	12c00693          	li	a3,300
    80201442:	85ca                	mv	a1,s2
    80201444:	008a3503          	ld	a0,8(s4)
    80201448:	00002097          	auipc	ra,0x2
    8020144c:	a6e080e7          	jalr	-1426(ra) # 80202eb6 <copyinstr>
		argv[i] = (char *)strpool[i];
    80201450:	415487b3          	sub	a5,s1,s5
    80201454:	d9040713          	addi	a4,s0,-624
    80201458:	97ba                	add	a5,a5,a4
    8020145a:	0127b023          	sd	s2,0(a5)
	     uargv += sizeof(char *), i++) {
    8020145e:	04a1                	addi	s1,s1,8
    80201460:	2985                	addiw	s3,s3,1
    80201462:	12c90913          	addi	s2,s2,300
	for (i = 0; uargv && (arg = fetchaddr(p->pagetable, uargv));
    80201466:	f0f9                	bnez	s1,8020142c <sys_exec+0x54>
	}
	argv[i] = NULL;
    80201468:	098e                	slli	s3,s3,0x3
    8020146a:	fc040793          	addi	a5,s0,-64
    8020146e:	99be                	add	s3,s3,a5
    80201470:	dc09b823          	sd	zero,-560(s3)
	return exec(name, (char **)argv);
    80201474:	d9040593          	addi	a1,s0,-624
    80201478:	e9040513          	addi	a0,s0,-368
    8020147c:	00004097          	auipc	ra,0x4
    80201480:	b96080e7          	jalr	-1130(ra) # 80205012 <exec>
}
    80201484:	26813083          	ld	ra,616(sp)
    80201488:	26013403          	ld	s0,608(sp)
    8020148c:	25813483          	ld	s1,600(sp)
    80201490:	25013903          	ld	s2,592(sp)
    80201494:	24813983          	ld	s3,584(sp)
    80201498:	24013a03          	ld	s4,576(sp)
    8020149c:	23813a83          	ld	s5,568(sp)
    802014a0:	27010113          	addi	sp,sp,624
    802014a4:	8082                	ret
	for (i = 0; uargv && (arg = fetchaddr(p->pagetable, uargv));
    802014a6:	4981                	li	s3,0
    802014a8:	b7c1                	j	80201468 <sys_exec+0x90>

00000000802014aa <sys_wait>:

uint64 sys_wait(int pid, uint64 va)
{
    802014aa:	1101                	addi	sp,sp,-32
    802014ac:	ec06                	sd	ra,24(sp)
    802014ae:	e822                	sd	s0,16(sp)
    802014b0:	e426                	sd	s1,8(sp)
    802014b2:	e04a                	sd	s2,0(sp)
    802014b4:	1000                	addi	s0,sp,32
    802014b6:	84aa                	mv	s1,a0
    802014b8:	892e                	mv	s2,a1
	struct proc *p = curr_proc();
    802014ba:	00003097          	auipc	ra,0x3
    802014be:	f24080e7          	jalr	-220(ra) # 802043de <curr_proc>
	int *code = (int *)useraddr(p->pagetable, va);
    802014c2:	85ca                	mv	a1,s2
    802014c4:	6508                	ld	a0,8(a0)
    802014c6:	00001097          	auipc	ra,0x1
    802014ca:	2b0080e7          	jalr	688(ra) # 80202776 <useraddr>
	return wait(pid, code);
    802014ce:	85aa                	mv	a1,a0
    802014d0:	8526                	mv	a0,s1
    802014d2:	00004097          	auipc	ra,0x4
    802014d6:	c12080e7          	jalr	-1006(ra) # 802050e4 <wait>
}
    802014da:	60e2                	ld	ra,24(sp)
    802014dc:	6442                	ld	s0,16(sp)
    802014de:	64a2                	ld	s1,8(sp)
    802014e0:	6902                	ld	s2,0(sp)
    802014e2:	6105                	addi	sp,sp,32
    802014e4:	8082                	ret

00000000802014e6 <sys_pipe>:

uint64 sys_pipe(uint64 fdarray)
{
    802014e6:	7139                	addi	sp,sp,-64
    802014e8:	fc06                	sd	ra,56(sp)
    802014ea:	f822                	sd	s0,48(sp)
    802014ec:	f426                	sd	s1,40(sp)
    802014ee:	f04a                	sd	s2,32(sp)
    802014f0:	ec4e                	sd	s3,24(sp)
    802014f2:	e852                	sd	s4,16(sp)
    802014f4:	0080                	addi	s0,sp,64
    802014f6:	8a2a                	mv	s4,a0
	struct proc *p = curr_proc();
    802014f8:	00003097          	auipc	ra,0x3
    802014fc:	ee6080e7          	jalr	-282(ra) # 802043de <curr_proc>
    80201500:	84aa                	mv	s1,a0
	uint64 fd0, fd1;
	struct file *f0, *f1;
	if (f0 < 0 || f1 < 0) {
		return -1;
	}
	f0 = filealloc();
    80201502:	00002097          	auipc	ra,0x2
    80201506:	356080e7          	jalr	854(ra) # 80203858 <filealloc>
    8020150a:	89aa                	mv	s3,a0
	f1 = filealloc();
    8020150c:	00002097          	auipc	ra,0x2
    80201510:	34c080e7          	jalr	844(ra) # 80203858 <filealloc>
    80201514:	892a                	mv	s2,a0
	if (pipealloc(f0, f1) < 0)
    80201516:	85aa                	mv	a1,a0
    80201518:	854e                	mv	a0,s3
    8020151a:	00002097          	auipc	ra,0x2
    8020151e:	6be080e7          	jalr	1726(ra) # 80203bd8 <pipealloc>
    80201522:	06054663          	bltz	a0,8020158e <sys_pipe+0xa8>
		goto err0;
	fd0 = fdalloc(f0);
    80201526:	854e                	mv	a0,s3
    80201528:	00004097          	auipc	ra,0x4
    8020152c:	d26080e7          	jalr	-730(ra) # 8020524e <fdalloc>
    80201530:	fca43423          	sd	a0,-56(s0)
	fd1 = fdalloc(f1);
    80201534:	854a                	mv	a0,s2
    80201536:	00004097          	auipc	ra,0x4
    8020153a:	d18080e7          	jalr	-744(ra) # 8020524e <fdalloc>
    8020153e:	fca43023          	sd	a0,-64(s0)
	if (fd0 < 0 || fd1 < 0)
		goto err0;
	if (copyout(p->pagetable, fdarray, (char *)&fd0, sizeof(fd0)) < 0 ||
    80201542:	46a1                	li	a3,8
    80201544:	fc840613          	addi	a2,s0,-56
    80201548:	85d2                	mv	a1,s4
    8020154a:	6488                	ld	a0,8(s1)
    8020154c:	00002097          	auipc	ra,0x2
    80201550:	850080e7          	jalr	-1968(ra) # 80202d9c <copyout>
    80201554:	00054f63          	bltz	a0,80201572 <sys_pipe+0x8c>
	    copyout(p->pagetable, fdarray + sizeof(uint64), (char *)&fd1,
    80201558:	46a1                	li	a3,8
    8020155a:	fc040613          	addi	a2,s0,-64
    8020155e:	008a0593          	addi	a1,s4,8
    80201562:	6488                	ld	a0,8(s1)
    80201564:	00002097          	auipc	ra,0x2
    80201568:	838080e7          	jalr	-1992(ra) # 80202d9c <copyout>
		    sizeof(fd1)) < 0) {
		goto err1;
	}
	return 0;
    8020156c:	4781                	li	a5,0
	if (copyout(p->pagetable, fdarray, (char *)&fd0, sizeof(fd0)) < 0 ||
    8020156e:	02055b63          	bgez	a0,802015a4 <sys_pipe+0xbe>

err1:
	p->files[fd0] = 0;
    80201572:	fc843783          	ld	a5,-56(s0)
    80201576:	0799                	addi	a5,a5,6
    80201578:	078e                	slli	a5,a5,0x3
    8020157a:	97a6                	add	a5,a5,s1
    8020157c:	0007b023          	sd	zero,0(a5)
	p->files[fd1] = 0;
    80201580:	fc043783          	ld	a5,-64(s0)
    80201584:	0799                	addi	a5,a5,6
    80201586:	078e                	slli	a5,a5,0x3
    80201588:	94be                	add	s1,s1,a5
    8020158a:	0004b023          	sd	zero,0(s1)
err0:
	fileclose(f0);
    8020158e:	854e                	mv	a0,s3
    80201590:	00002097          	auipc	ra,0x2
    80201594:	1d0080e7          	jalr	464(ra) # 80203760 <fileclose>
	fileclose(f1);
    80201598:	854a                	mv	a0,s2
    8020159a:	00002097          	auipc	ra,0x2
    8020159e:	1c6080e7          	jalr	454(ra) # 80203760 <fileclose>
	return -1;
    802015a2:	57fd                	li	a5,-1
}
    802015a4:	853e                	mv	a0,a5
    802015a6:	70e2                	ld	ra,56(sp)
    802015a8:	7442                	ld	s0,48(sp)
    802015aa:	74a2                	ld	s1,40(sp)
    802015ac:	7902                	ld	s2,32(sp)
    802015ae:	69e2                	ld	s3,24(sp)
    802015b0:	6a42                	ld	s4,16(sp)
    802015b2:	6121                	addi	sp,sp,64
    802015b4:	8082                	ret

00000000802015b6 <sys_openat>:

uint64 sys_openat(uint64 va, uint64 omode, uint64 _flags)
{
    802015b6:	7151                	addi	sp,sp,-240
    802015b8:	f586                	sd	ra,232(sp)
    802015ba:	f1a2                	sd	s0,224(sp)
    802015bc:	eda6                	sd	s1,216(sp)
    802015be:	e9ca                	sd	s2,208(sp)
    802015c0:	1980                	addi	s0,sp,240
    802015c2:	892a                	mv	s2,a0
    802015c4:	84ae                	mv	s1,a1
	struct proc *p = curr_proc();
    802015c6:	00003097          	auipc	ra,0x3
    802015ca:	e18080e7          	jalr	-488(ra) # 802043de <curr_proc>
	char path[200];
	copyinstr(p->pagetable, path, va, 200);
    802015ce:	0c800693          	li	a3,200
    802015d2:	864a                	mv	a2,s2
    802015d4:	f1840593          	addi	a1,s0,-232
    802015d8:	6508                	ld	a0,8(a0)
    802015da:	00002097          	auipc	ra,0x2
    802015de:	8dc080e7          	jalr	-1828(ra) # 80202eb6 <copyinstr>
	return fileopen(path, omode);
    802015e2:	85a6                	mv	a1,s1
    802015e4:	f1840513          	addi	a0,s0,-232
    802015e8:	00002097          	auipc	ra,0x2
    802015ec:	322080e7          	jalr	802(ra) # 8020390a <fileopen>
}
    802015f0:	70ae                	ld	ra,232(sp)
    802015f2:	740e                	ld	s0,224(sp)
    802015f4:	64ee                	ld	s1,216(sp)
    802015f6:	694e                	ld	s2,208(sp)
    802015f8:	616d                	addi	sp,sp,240
    802015fa:	8082                	ret

00000000802015fc <sys_close>:

uint64 sys_close(int fd)
{
	if (fd < 0 || fd > FD_BUFFER_SIZE)
    802015fc:	4741                	li	a4,16
    802015fe:	06a76a63          	bltu	a4,a0,80201672 <sys_close+0x76>
{
    80201602:	1101                	addi	sp,sp,-32
    80201604:	ec06                	sd	ra,24(sp)
    80201606:	e822                	sd	s0,16(sp)
    80201608:	e426                	sd	s1,8(sp)
    8020160a:	e04a                	sd	s2,0(sp)
    8020160c:	1000                	addi	s0,sp,32
    8020160e:	892a                	mv	s2,a0
		return -1;
	struct proc *p = curr_proc();
    80201610:	00003097          	auipc	ra,0x3
    80201614:	dce080e7          	jalr	-562(ra) # 802043de <curr_proc>
	struct file *f = p->files[fd];
    80201618:	00391493          	slli	s1,s2,0x3
    8020161c:	94aa                	add	s1,s1,a0
    8020161e:	7888                	ld	a0,48(s1)
	if (f == NULL) {
    80201620:	cd11                	beqz	a0,8020163c <sys_close+0x40>
		errorf("invalid fd %d", fd);
		return -1;
	}
	fileclose(f);
    80201622:	00002097          	auipc	ra,0x2
    80201626:	13e080e7          	jalr	318(ra) # 80203760 <fileclose>
	p->files[fd] = 0;
    8020162a:	0204b823          	sd	zero,48(s1)
	return 0;
    8020162e:	4501                	li	a0,0
}
    80201630:	60e2                	ld	ra,24(sp)
    80201632:	6442                	ld	s0,16(sp)
    80201634:	64a2                	ld	s1,8(sp)
    80201636:	6902                	ld	s2,0(sp)
    80201638:	6105                	addi	sp,sp,32
    8020163a:	8082                	ret
		errorf("invalid fd %d", fd);
    8020163c:	00003097          	auipc	ra,0x3
    80201640:	d62080e7          	jalr	-670(ra) # 8020439e <procid>
    80201644:	84aa                	mv	s1,a0
    80201646:	00003097          	auipc	ra,0x3
    8020164a:	d72080e7          	jalr	-654(ra) # 802043b8 <threadid>
    8020164e:	87ca                	mv	a5,s2
    80201650:	872a                	mv	a4,a0
    80201652:	86a6                	mv	a3,s1
    80201654:	00007617          	auipc	a2,0x7
    80201658:	a3c60613          	addi	a2,a2,-1476 # 80208090 <e_text+0x90>
    8020165c:	45fd                	li	a1,31
    8020165e:	00007517          	auipc	a0,0x7
    80201662:	e0a50513          	addi	a0,a0,-502 # 80208468 <e_text+0x468>
    80201666:	00002097          	auipc	ra,0x2
    8020166a:	a60080e7          	jalr	-1440(ra) # 802030c6 <printf>
		return -1;
    8020166e:	557d                	li	a0,-1
    80201670:	b7c1                	j	80201630 <sys_close+0x34>
		return -1;
    80201672:	557d                	li	a0,-1
}
    80201674:	8082                	ret

0000000080201676 <sys_thread_create>:

int sys_thread_create(uint64 entry, uint64 arg)
{
    80201676:	7179                	addi	sp,sp,-48
    80201678:	f406                	sd	ra,40(sp)
    8020167a:	f022                	sd	s0,32(sp)
    8020167c:	ec26                	sd	s1,24(sp)
    8020167e:	e84a                	sd	s2,16(sp)
    80201680:	e44e                	sd	s3,8(sp)
    80201682:	1800                	addi	s0,sp,48
    80201684:	84aa                	mv	s1,a0
    80201686:	89ae                	mv	s3,a1
	struct proc *p = curr_proc();
    80201688:	00003097          	auipc	ra,0x3
    8020168c:	d56080e7          	jalr	-682(ra) # 802043de <curr_proc>
    80201690:	892a                	mv	s2,a0
	int tid = allocthread(p, entry, 1);
    80201692:	4605                	li	a2,1
    80201694:	85a6                	mv	a1,s1
    80201696:	00003097          	auipc	ra,0x3
    8020169a:	0a6080e7          	jalr	166(ra) # 8020473c <allocthread>
	if (tid < 0) {
    8020169e:	02054f63          	bltz	a0,802016dc <sys_thread_create+0x66>
    802016a2:	84aa                	mv	s1,a0
		errorf("fail to create thread");
		return -1;
	}
	struct thread *t = &p->threads[tid];
	t->trapframe->a0 = arg;
    802016a4:	050a                	slli	a0,a0,0x2
    802016a6:	009507b3          	add	a5,a0,s1
    802016aa:	0796                	slli	a5,a5,0x5
    802016ac:	97ca                	add	a5,a5,s2
    802016ae:	6bf8                	ld	a4,208(a5)
    802016b0:	07373823          	sd	s3,112(a4)
	t->state = RUNNABLE;
    802016b4:	470d                	li	a4,3
    802016b6:	0ae7a823          	sw	a4,176(a5)
	struct thread *t = &p->threads[tid];
    802016ba:	9526                	add	a0,a0,s1
    802016bc:	0516                	slli	a0,a0,0x5
    802016be:	0b050513          	addi	a0,a0,176
	add_task(t);
    802016c2:	954a                	add	a0,a0,s2
    802016c4:	00003097          	auipc	ra,0x3
    802016c8:	ef2080e7          	jalr	-270(ra) # 802045b6 <add_task>
	return tid;
}
    802016cc:	8526                	mv	a0,s1
    802016ce:	70a2                	ld	ra,40(sp)
    802016d0:	7402                	ld	s0,32(sp)
    802016d2:	64e2                	ld	s1,24(sp)
    802016d4:	6942                	ld	s2,16(sp)
    802016d6:	69a2                	ld	s3,8(sp)
    802016d8:	6145                	addi	sp,sp,48
    802016da:	8082                	ret
		errorf("fail to create thread");
    802016dc:	00003097          	auipc	ra,0x3
    802016e0:	cc2080e7          	jalr	-830(ra) # 8020439e <procid>
    802016e4:	84aa                	mv	s1,a0
    802016e6:	00003097          	auipc	ra,0x3
    802016ea:	cd2080e7          	jalr	-814(ra) # 802043b8 <threadid>
    802016ee:	872a                	mv	a4,a0
    802016f0:	86a6                	mv	a3,s1
    802016f2:	00007617          	auipc	a2,0x7
    802016f6:	99e60613          	addi	a2,a2,-1634 # 80208090 <e_text+0x90>
    802016fa:	45fd                	li	a1,31
    802016fc:	00007517          	auipc	a0,0x7
    80201700:	d9450513          	addi	a0,a0,-620 # 80208490 <e_text+0x490>
    80201704:	00002097          	auipc	ra,0x2
    80201708:	9c2080e7          	jalr	-1598(ra) # 802030c6 <printf>
		return -1;
    8020170c:	54fd                	li	s1,-1
    8020170e:	bf7d                	j	802016cc <sys_thread_create+0x56>

0000000080201710 <sys_gettid>:

int sys_gettid()
{
    80201710:	1141                	addi	sp,sp,-16
    80201712:	e406                	sd	ra,8(sp)
    80201714:	e022                	sd	s0,0(sp)
    80201716:	0800                	addi	s0,sp,16
	return curr_thread()->tid;
    80201718:	00003097          	auipc	ra,0x3
    8020171c:	cde080e7          	jalr	-802(ra) # 802043f6 <curr_thread>
}
    80201720:	4148                	lw	a0,4(a0)
    80201722:	60a2                	ld	ra,8(sp)
    80201724:	6402                	ld	s0,0(sp)
    80201726:	0141                	addi	sp,sp,16
    80201728:	8082                	ret

000000008020172a <sys_waittid>:

int sys_waittid(int tid)
{
    8020172a:	7179                	addi	sp,sp,-48
    8020172c:	f406                	sd	ra,40(sp)
    8020172e:	f022                	sd	s0,32(sp)
    80201730:	ec26                	sd	s1,24(sp)
    80201732:	e84a                	sd	s2,16(sp)
    80201734:	e44e                	sd	s3,8(sp)
    80201736:	e052                	sd	s4,0(sp)
    80201738:	1800                	addi	s0,sp,48
	if (tid < 0 || tid >= NTHREAD) {
    8020173a:	47bd                	li	a5,15
    8020173c:	06a7ee63          	bltu	a5,a0,802017b8 <sys_waittid+0x8e>
    80201740:	84aa                	mv	s1,a0
		errorf("unexpected tid %d", tid);
		return -1;
	}
	struct thread *t = &curr_proc()->threads[tid];
    80201742:	00003097          	auipc	ra,0x3
    80201746:	c9c080e7          	jalr	-868(ra) # 802043de <curr_proc>
    8020174a:	89aa                	mv	s3,a0
	if (t->state == T_UNUSED || tid == curr_thread()->tid) {
    8020174c:	00249793          	slli	a5,s1,0x2
    80201750:	97a6                	add	a5,a5,s1
    80201752:	0796                	slli	a5,a5,0x5
    80201754:	97aa                	add	a5,a5,a0
    80201756:	0b07a783          	lw	a5,176(a5)
    8020175a:	cbd1                	beqz	a5,802017ee <sys_waittid+0xc4>
    8020175c:	00003097          	auipc	ra,0x3
    80201760:	c9a080e7          	jalr	-870(ra) # 802043f6 <curr_thread>
    80201764:	415c                	lw	a5,4(a0)
    80201766:	08978663          	beq	a5,s1,802017f2 <sys_waittid+0xc8>
		return -1;
	}
	if (t->state != EXITED) {
    8020176a:	00249793          	slli	a5,s1,0x2
    8020176e:	97a6                	add	a5,a5,s1
    80201770:	0796                	slli	a5,a5,0x5
    80201772:	97ce                	add	a5,a5,s3
    80201774:	0b07a703          	lw	a4,176(a5)
    80201778:	4795                	li	a5,5
    8020177a:	06f71e63          	bne	a4,a5,802017f6 <sys_waittid+0xcc>
		return -2;
	}
	memset((void *)t->kstack, 7, KSTACK_SIZE);
    8020177e:	00249a13          	slli	s4,s1,0x2
    80201782:	009a0933          	add	s2,s4,s1
    80201786:	0916                	slli	s2,s2,0x5
    80201788:	994e                	add	s2,s2,s3
    8020178a:	6605                	lui	a2,0x1
    8020178c:	459d                	li	a1,7
    8020178e:	0c893503          	ld	a0,200(s2)
    80201792:	fffff097          	auipc	ra,0xfffff
    80201796:	946080e7          	jalr	-1722(ra) # 802000d8 <memset>
	t->tid = -1;
    8020179a:	57fd                	li	a5,-1
    8020179c:	0af92a23          	sw	a5,180(s2)
	t->state = T_UNUSED;
    802017a0:	0a092823          	sw	zero,176(s2)
	return t->exit_code;
    802017a4:	14892503          	lw	a0,328(s2)
}
    802017a8:	70a2                	ld	ra,40(sp)
    802017aa:	7402                	ld	s0,32(sp)
    802017ac:	64e2                	ld	s1,24(sp)
    802017ae:	6942                	ld	s2,16(sp)
    802017b0:	69a2                	ld	s3,8(sp)
    802017b2:	6a02                	ld	s4,0(sp)
    802017b4:	6145                	addi	sp,sp,48
    802017b6:	8082                	ret
		errorf("unexpected tid %d", tid);
    802017b8:	00003097          	auipc	ra,0x3
    802017bc:	be6080e7          	jalr	-1050(ra) # 8020439e <procid>
    802017c0:	84aa                	mv	s1,a0
    802017c2:	00003097          	auipc	ra,0x3
    802017c6:	bf6080e7          	jalr	-1034(ra) # 802043b8 <threadid>
    802017ca:	872a                	mv	a4,a0
    802017cc:	87aa                	mv	a5,a0
    802017ce:	86a6                	mv	a3,s1
    802017d0:	00007617          	auipc	a2,0x7
    802017d4:	8c060613          	addi	a2,a2,-1856 # 80208090 <e_text+0x90>
    802017d8:	45fd                	li	a1,31
    802017da:	00007517          	auipc	a0,0x7
    802017de:	ce650513          	addi	a0,a0,-794 # 802084c0 <e_text+0x4c0>
    802017e2:	00002097          	auipc	ra,0x2
    802017e6:	8e4080e7          	jalr	-1820(ra) # 802030c6 <printf>
		return -1;
    802017ea:	557d                	li	a0,-1
    802017ec:	bf75                	j	802017a8 <sys_waittid+0x7e>
		return -1;
    802017ee:	557d                	li	a0,-1
    802017f0:	bf65                	j	802017a8 <sys_waittid+0x7e>
    802017f2:	557d                	li	a0,-1
    802017f4:	bf55                	j	802017a8 <sys_waittid+0x7e>
		return -2;
    802017f6:	5579                	li	a0,-2
    802017f8:	bf45                	j	802017a8 <sys_waittid+0x7e>

00000000802017fa <satisfied>:
*				for both mutex and semaphore detect, you can also
*				use this idea or just ignore it.
*/
//Request[i,0~n-1]  Work[0~n-1];
int satisfied(const int req[LOCK_POOL_SIZE], int work[LOCK_POOL_SIZE], int flag)
{
    802017fa:	1101                	addi	sp,sp,-32
    802017fc:	ec06                	sd	ra,24(sp)
    802017fe:	e822                	sd	s0,16(sp)
    80201800:	e426                	sd	s1,8(sp)
    80201802:	e04a                	sd	s2,0(sp)
    80201804:	1000                	addi	s0,sp,32
    80201806:	84aa                	mv	s1,a0
    80201808:	892e                	mv	s2,a1
	int limit;
	if(flag == 0)
    8020180a:	e239                	bnez	a2,80201850 <satisfied+0x56>
		limit = curr_proc()->next_mutex_id;
    8020180c:	00003097          	auipc	ra,0x3
    80201810:	bd2080e7          	jalr	-1070(ra) # 802043de <curr_proc>
    80201814:	6785                	lui	a5,0x1
    80201816:	953e                	add	a0,a0,a5
    80201818:	ab052783          	lw	a5,-1360(a0)
	else
		limit = curr_proc()->next_semaphore_id;
	for(int i=0;i<limit;i++)
    8020181c:	04f05a63          	blez	a5,80201870 <satisfied+0x76>
	{
		if(req[i] > work[i])
    80201820:	4094                	lw	a3,0(s1)
    80201822:	00092703          	lw	a4,0(s2)
    80201826:	04d74763          	blt	a4,a3,80201874 <satisfied+0x7a>
    8020182a:	00448513          	addi	a0,s1,4
    8020182e:	00490593          	addi	a1,s2,4
    80201832:	37fd                	addiw	a5,a5,-1
    80201834:	1782                	slli	a5,a5,0x20
    80201836:	9381                	srli	a5,a5,0x20
    80201838:	078a                	slli	a5,a5,0x2
    8020183a:	97aa                	add	a5,a5,a0
	for(int i=0;i<limit;i++)
    8020183c:	02f50363          	beq	a0,a5,80201862 <satisfied+0x68>
		if(req[i] > work[i])
    80201840:	4114                	lw	a3,0(a0)
    80201842:	4198                	lw	a4,0(a1)
    80201844:	0511                	addi	a0,a0,4
    80201846:	0591                	addi	a1,a1,4
    80201848:	fed75ae3          	bge	a4,a3,8020183c <satisfied+0x42>
			return 0;
    8020184c:	4501                	li	a0,0
    8020184e:	a819                	j	80201864 <satisfied+0x6a>
		limit = curr_proc()->next_semaphore_id;
    80201850:	00003097          	auipc	ra,0x3
    80201854:	b8e080e7          	jalr	-1138(ra) # 802043de <curr_proc>
    80201858:	6785                	lui	a5,0x1
    8020185a:	953e                	add	a0,a0,a5
    8020185c:	ab452783          	lw	a5,-1356(a0)
    80201860:	bf75                	j	8020181c <satisfied+0x22>
	}
		
	return 1;
    80201862:	4505                	li	a0,1
}
    80201864:	60e2                	ld	ra,24(sp)
    80201866:	6442                	ld	s0,16(sp)
    80201868:	64a2                	ld	s1,8(sp)
    8020186a:	6902                	ld	s2,0(sp)
    8020186c:	6105                	addi	sp,sp,32
    8020186e:	8082                	ret
	return 1;
    80201870:	4505                	li	a0,1
    80201872:	bfcd                	j	80201864 <satisfied+0x6a>
			return 0;
    80201874:	4501                	li	a0,0
    80201876:	b7fd                	j	80201864 <satisfied+0x6a>

0000000080201878 <check>:
int check(int finish[NTHREAD])
{
    80201878:	7179                	addi	sp,sp,-48
    8020187a:	f406                	sd	ra,40(sp)
    8020187c:	f022                	sd	s0,32(sp)
    8020187e:	ec26                	sd	s1,24(sp)
    80201880:	e84a                	sd	s2,16(sp)
    80201882:	e44e                	sd	s3,8(sp)
    80201884:	1800                	addi	s0,sp,48
    80201886:	892a                	mv	s2,a0
	for(int i=0;i<NTHREAD;i++)
    80201888:	4481                	li	s1,0
    8020188a:	49c1                	li	s3,16
    8020188c:	a029                	j	80201896 <check+0x1e>
    8020188e:	2485                	addiw	s1,s1,1
    80201890:	0911                	addi	s2,s2,4
    80201892:	03348263          	beq	s1,s3,802018b6 <check+0x3e>
	{
		if(curr_proc()->threads[i].state == T_UNUSED)continue;
    80201896:	00003097          	auipc	ra,0x3
    8020189a:	b48080e7          	jalr	-1208(ra) # 802043de <curr_proc>
    8020189e:	00249793          	slli	a5,s1,0x2
    802018a2:	97a6                	add	a5,a5,s1
    802018a4:	0796                	slli	a5,a5,0x5
    802018a6:	953e                	add	a0,a0,a5
    802018a8:	0b052783          	lw	a5,176(a0)
    802018ac:	d3ed                	beqz	a5,8020188e <check+0x16>
		if(finish[i] == 0)return 0;
    802018ae:	00092503          	lw	a0,0(s2)
    802018b2:	fd71                	bnez	a0,8020188e <check+0x16>
    802018b4:	a011                	j	802018b8 <check+0x40>
	}	
	return 1;
    802018b6:	4505                	li	a0,1
}
    802018b8:	70a2                	ld	ra,40(sp)
    802018ba:	7402                	ld	s0,32(sp)
    802018bc:	64e2                	ld	s1,24(sp)
    802018be:	6942                	ld	s2,16(sp)
    802018c0:	69a2                	ld	s3,8(sp)
    802018c2:	6145                	addi	sp,sp,48
    802018c4:	8082                	ret

00000000802018c6 <deadlock_detect>:

int deadlock_detect(const int available[LOCK_POOL_SIZE],
					const int allocation[NTHREAD][LOCK_POOL_SIZE],
					const int request[NTHREAD][LOCK_POOL_SIZE],
					int flag)
{
    802018c6:	7115                	addi	sp,sp,-224
    802018c8:	ed86                	sd	ra,216(sp)
    802018ca:	e9a2                	sd	s0,208(sp)
    802018cc:	e5a6                	sd	s1,200(sp)
    802018ce:	e1ca                	sd	s2,192(sp)
    802018d0:	fd4e                	sd	s3,184(sp)
    802018d2:	f952                	sd	s4,176(sp)
    802018d4:	f556                	sd	s5,168(sp)
    802018d6:	f15a                	sd	s6,160(sp)
    802018d8:	ed5e                	sd	s7,152(sp)
    802018da:	e962                	sd	s8,144(sp)
    802018dc:	e566                	sd	s9,136(sp)
    802018de:	e16a                	sd	s10,128(sp)
    802018e0:	fcee                	sd	s11,120(sp)
    802018e2:	1180                	addi	s0,sp,224
    802018e4:	84aa                	mv	s1,a0
    802018e6:	f2b43023          	sd	a1,-224(s0)
    802018ea:	8c32                	mv	s8,a2
    802018ec:	8bb6                	mv	s7,a3
	int limit;
	if(flag == 0)
    802018ee:	eeb9                	bnez	a3,8020194c <deadlock_detect+0x86>
		limit = curr_proc()->next_mutex_id;
    802018f0:	00003097          	auipc	ra,0x3
    802018f4:	aee080e7          	jalr	-1298(ra) # 802043de <curr_proc>
    802018f8:	6785                	lui	a5,0x1
    802018fa:	953e                	add	a0,a0,a5
    802018fc:	ab052d03          	lw	s10,-1360(a0)
	else
		limit = curr_proc()->next_semaphore_id;
	int work[LOCK_POOL_SIZE];
	for(int i=0;i<LOCK_POOL_SIZE;i++)
    80201900:	8526                	mv	a0,s1
    80201902:	f9040693          	addi	a3,s0,-112
{
    80201906:	f7040793          	addi	a5,s0,-144
		work[i] = available[i];
    8020190a:	4118                	lw	a4,0(a0)
    8020190c:	c398                	sw	a4,0(a5)
    8020190e:	0511                	addi	a0,a0,4
    80201910:	0791                	addi	a5,a5,4
	for(int i=0;i<LOCK_POOL_SIZE;i++)
    80201912:	fed79ce3          	bne	a5,a3,8020190a <deadlock_detect+0x44>
	int finish[NTHREAD];
	memset(finish,0,sizeof(finish));
    80201916:	04000613          	li	a2,64
    8020191a:	4581                	li	a1,0
    8020191c:	f3040513          	addi	a0,s0,-208
    80201920:	ffffe097          	auipc	ra,0xffffe
    80201924:	7b8080e7          	jalr	1976(ra) # 802000d8 <memset>
    80201928:	fffd0a9b          	addiw	s5,s10,-1
    8020192c:	1a82                	slli	s5,s5,0x20
    8020192e:	020ada93          	srli	s5,s5,0x20
    80201932:	0a8a                	slli	s5,s5,0x2
    80201934:	f7440793          	addi	a5,s0,-140
    80201938:	9abe                	add	s5,s5,a5
				found = 1;
				for(int j=0;j<limit;j++)
				{
					work[j] += allocation[i][j];
				}
				finish[i] = 1;
    8020193a:	4c85                	li	s9,1
		for(int i=0;i<NTHREAD;i++)
    8020193c:	4a41                	li	s4,16
				finish[i] = 1;
    8020193e:	f3943423          	sd	s9,-216(s0)
		for(int i=0;i<NTHREAD;i++)
    80201942:	f3040913          	addi	s2,s0,-208
{
    80201946:	4481                	li	s1,0
		int found = 0;
    80201948:	4d81                	li	s11,0
    8020194a:	a015                	j	8020196e <deadlock_detect+0xa8>
		limit = curr_proc()->next_semaphore_id;
    8020194c:	00003097          	auipc	ra,0x3
    80201950:	a92080e7          	jalr	-1390(ra) # 802043de <curr_proc>
    80201954:	6785                	lui	a5,0x1
    80201956:	953e                	add	a0,a0,a5
    80201958:	ab452d03          	lw	s10,-1356(a0)
    8020195c:	b755                	j	80201900 <deadlock_detect+0x3a>
				finish[i] = 1;
    8020195e:	019b2023          	sw	s9,0(s6)
				found = 1;
    80201962:	f2843d83          	ld	s11,-216(s0)
    80201966:	0485                	addi	s1,s1,1
    80201968:	0911                	addi	s2,s2,4
		for(int i=0;i<NTHREAD;i++)
    8020196a:	07448163          	beq	s1,s4,802019cc <deadlock_detect+0x106>
			if(curr_proc()->threads[i].state == T_UNUSED)continue;
    8020196e:	00003097          	auipc	ra,0x3
    80201972:	a70080e7          	jalr	-1424(ra) # 802043de <curr_proc>
    80201976:	0004871b          	sext.w	a4,s1
    8020197a:	00271793          	slli	a5,a4,0x2
    8020197e:	97ba                	add	a5,a5,a4
    80201980:	0796                	slli	a5,a5,0x5
    80201982:	953e                	add	a0,a0,a5
    80201984:	0b052783          	lw	a5,176(a0)
    80201988:	dff9                	beqz	a5,80201966 <deadlock_detect+0xa0>
			if(finish[i] == 0 && satisfied(request[i], work, flag))
    8020198a:	8b4a                	mv	s6,s2
    8020198c:	00092783          	lw	a5,0(s2)
    80201990:	fbf9                	bnez	a5,80201966 <deadlock_detect+0xa0>
    80201992:	00549993          	slli	s3,s1,0x5
    80201996:	865e                	mv	a2,s7
    80201998:	f7040593          	addi	a1,s0,-144
    8020199c:	013c0533          	add	a0,s8,s3
    802019a0:	00000097          	auipc	ra,0x0
    802019a4:	e5a080e7          	jalr	-422(ra) # 802017fa <satisfied>
    802019a8:	dd5d                	beqz	a0,80201966 <deadlock_detect+0xa0>
				for(int j=0;j<limit;j++)
    802019aa:	fba05ae3          	blez	s10,8020195e <deadlock_detect+0x98>
    802019ae:	f2043783          	ld	a5,-224(s0)
    802019b2:	99be                	add	s3,s3,a5
    802019b4:	f7040793          	addi	a5,s0,-144
					work[j] += allocation[i][j];
    802019b8:	4398                	lw	a4,0(a5)
    802019ba:	0009a683          	lw	a3,0(s3)
    802019be:	9f35                	addw	a4,a4,a3
    802019c0:	c398                	sw	a4,0(a5)
    802019c2:	0791                	addi	a5,a5,4
    802019c4:	0991                	addi	s3,s3,4
				for(int j=0;j<limit;j++)
    802019c6:	ff5799e3          	bne	a5,s5,802019b8 <deadlock_detect+0xf2>
    802019ca:	bf51                	j	8020195e <deadlock_detect+0x98>
			}
		}
		if(!found)
    802019cc:	f60d9be3          	bnez	s11,80201942 <deadlock_detect+0x7c>
			return check(finish);
    802019d0:	f3040513          	addi	a0,s0,-208
    802019d4:	00000097          	auipc	ra,0x0
    802019d8:	ea4080e7          	jalr	-348(ra) # 80201878 <check>
	}
	return check(finish);
}
    802019dc:	60ee                	ld	ra,216(sp)
    802019de:	644e                	ld	s0,208(sp)
    802019e0:	64ae                	ld	s1,200(sp)
    802019e2:	690e                	ld	s2,192(sp)
    802019e4:	79ea                	ld	s3,184(sp)
    802019e6:	7a4a                	ld	s4,176(sp)
    802019e8:	7aaa                	ld	s5,168(sp)
    802019ea:	7b0a                	ld	s6,160(sp)
    802019ec:	6bea                	ld	s7,152(sp)
    802019ee:	6c4a                	ld	s8,144(sp)
    802019f0:	6caa                	ld	s9,136(sp)
    802019f2:	6d0a                	ld	s10,128(sp)
    802019f4:	7de6                	ld	s11,120(sp)
    802019f6:	612d                	addi	sp,sp,224
    802019f8:	8082                	ret

00000000802019fa <sys_mutex_create>:

int sys_mutex_create(int blocking)
{
    802019fa:	1101                	addi	sp,sp,-32
    802019fc:	ec06                	sd	ra,24(sp)
    802019fe:	e822                	sd	s0,16(sp)
    80201a00:	e426                	sd	s1,8(sp)
    80201a02:	1000                	addi	s0,sp,32
	struct mutex *m = mutex_create(blocking);
    80201a04:	00002097          	auipc	ra,0x2
    80201a08:	908080e7          	jalr	-1784(ra) # 8020330c <mutex_create>
	if (m == NULL) {
    80201a0c:	c929                	beqz	a0,80201a5e <sys_mutex_create+0x64>
    80201a0e:	84aa                	mv	s1,a0
		errorf("fail to create mutex: out of resource");
		return -1;
	}
	// LAB5: (4-1) You may want to maintain some variables for detect here
	int mutex_id = m - curr_proc()->mutex_pool;
    80201a10:	00003097          	auipc	ra,0x3
    80201a14:	9ce080e7          	jalr	-1586(ra) # 802043de <curr_proc>
    80201a18:	6785                	lui	a5,0x1
    80201a1a:	ac078793          	addi	a5,a5,-1344 # ac0 <BASE_ADDRESS-0x801ff540>
    80201a1e:	953e                	add	a0,a0,a5
    80201a20:	8c89                	sub	s1,s1,a0
    80201a22:	8495                	srai	s1,s1,0x5
    80201a24:	00007797          	auipc	a5,0x7
    80201a28:	5bc78793          	addi	a5,a5,1468 # 80208fe0 <SBI_SET_TIMER+0x8>
    80201a2c:	6388                	ld	a0,0(a5)
    80201a2e:	02a484bb          	mulw	s1,s1,a0
	debugf("create mutex %d", mutex_id);
    80201a32:	85a6                	mv	a1,s1
    80201a34:	4501                	li	a0,0
    80201a36:	fffff097          	auipc	ra,0xfffff
    80201a3a:	876080e7          	jalr	-1930(ra) # 802002ac <dummy>

	curr_proc()->mutex_available[mutex_id] = 1;
    80201a3e:	00003097          	auipc	ra,0x3
    80201a42:	9a0080e7          	jalr	-1632(ra) # 802043de <curr_proc>
    80201a46:	4e048793          	addi	a5,s1,1248
    80201a4a:	078a                	slli	a5,a5,0x2
    80201a4c:	953e                	add	a0,a0,a5
    80201a4e:	4785                	li	a5,1
    80201a50:	c15c                	sw	a5,4(a0)

	return mutex_id;
}
    80201a52:	8526                	mv	a0,s1
    80201a54:	60e2                	ld	ra,24(sp)
    80201a56:	6442                	ld	s0,16(sp)
    80201a58:	64a2                	ld	s1,8(sp)
    80201a5a:	6105                	addi	sp,sp,32
    80201a5c:	8082                	ret
		errorf("fail to create mutex: out of resource");
    80201a5e:	00003097          	auipc	ra,0x3
    80201a62:	940080e7          	jalr	-1728(ra) # 8020439e <procid>
    80201a66:	84aa                	mv	s1,a0
    80201a68:	00003097          	auipc	ra,0x3
    80201a6c:	950080e7          	jalr	-1712(ra) # 802043b8 <threadid>
    80201a70:	872a                	mv	a4,a0
    80201a72:	86a6                	mv	a3,s1
    80201a74:	00006617          	auipc	a2,0x6
    80201a78:	61c60613          	addi	a2,a2,1564 # 80208090 <e_text+0x90>
    80201a7c:	45fd                	li	a1,31
    80201a7e:	00007517          	auipc	a0,0x7
    80201a82:	a6a50513          	addi	a0,a0,-1430 # 802084e8 <e_text+0x4e8>
    80201a86:	00001097          	auipc	ra,0x1
    80201a8a:	640080e7          	jalr	1600(ra) # 802030c6 <printf>
		return -1;
    80201a8e:	54fd                	li	s1,-1
    80201a90:	b7c9                	j	80201a52 <sys_mutex_create+0x58>

0000000080201a92 <sys_mutex_lock>:

int sys_mutex_lock(int mutex_id)
{
    80201a92:	7179                	addi	sp,sp,-48
    80201a94:	f406                	sd	ra,40(sp)
    80201a96:	f022                	sd	s0,32(sp)
    80201a98:	ec26                	sd	s1,24(sp)
    80201a9a:	e84a                	sd	s2,16(sp)
    80201a9c:	e44e                	sd	s3,8(sp)
    80201a9e:	e052                	sd	s4,0(sp)
    80201aa0:	1800                	addi	s0,sp,48
    80201aa2:	84aa                	mv	s1,a0
	if (mutex_id < 0 || mutex_id >= curr_proc()->next_mutex_id) {
    80201aa4:	0c054963          	bltz	a0,80201b76 <sys_mutex_lock+0xe4>
    80201aa8:	00003097          	auipc	ra,0x3
    80201aac:	936080e7          	jalr	-1738(ra) # 802043de <curr_proc>
    80201ab0:	6785                	lui	a5,0x1
    80201ab2:	953e                	add	a0,a0,a5
    80201ab4:	ab052783          	lw	a5,-1360(a0)
    80201ab8:	0af4ff63          	bgeu	s1,a5,80201b76 <sys_mutex_lock+0xe4>
		return -1;
	}
	// LAB5: (4-1) You may want to maintain some variables for detect
	//       or call your detect algorithm here

	if(curr_proc()->enable_DLD)
    80201abc:	00003097          	auipc	ra,0x3
    80201ac0:	922080e7          	jalr	-1758(ra) # 802043de <curr_proc>
    80201ac4:	6785                	lui	a5,0x1
    80201ac6:	953e                	add	a0,a0,a5
    80201ac8:	38052783          	lw	a5,896(a0)
    80201acc:	c7a5                	beqz	a5,80201b34 <sys_mutex_lock+0xa2>
	{
		curr_proc()->mutex_request[curr_thread()->tid][mutex_id]++;
    80201ace:	00003097          	auipc	ra,0x3
    80201ad2:	910080e7          	jalr	-1776(ra) # 802043de <curr_proc>
    80201ad6:	892a                	mv	s2,a0
    80201ad8:	00003097          	auipc	ra,0x3
    80201adc:	91e080e7          	jalr	-1762(ra) # 802043f6 <curr_thread>
    80201ae0:	4148                	lw	a0,4(a0)
    80201ae2:	050e                	slli	a0,a0,0x3
    80201ae4:	9526                	add	a0,a0,s1
    80201ae6:	050a                	slli	a0,a0,0x2
    80201ae8:	954a                	add	a0,a0,s2
    80201aea:	6905                	lui	s2,0x1
    80201aec:	954a                	add	a0,a0,s2
    80201aee:	5a452783          	lw	a5,1444(a0)
    80201af2:	2785                	addiw	a5,a5,1
    80201af4:	5af52223          	sw	a5,1444(a0)

		if(!deadlock_detect(curr_proc()->mutex_available,
    80201af8:	00003097          	auipc	ra,0x3
    80201afc:	8e6080e7          	jalr	-1818(ra) # 802043de <curr_proc>
    80201b00:	89aa                	mv	s3,a0
										curr_proc()->mutex_allocation,
    80201b02:	00003097          	auipc	ra,0x3
    80201b06:	8dc080e7          	jalr	-1828(ra) # 802043de <curr_proc>
    80201b0a:	8a2a                	mv	s4,a0
										curr_proc()->mutex_request, 
    80201b0c:	00003097          	auipc	ra,0x3
    80201b10:	8d2080e7          	jalr	-1838(ra) # 802043de <curr_proc>
    80201b14:	5a490613          	addi	a2,s2,1444 # 15a4 <BASE_ADDRESS-0x801fea5c>
										curr_proc()->mutex_allocation,
    80201b18:	3a490593          	addi	a1,s2,932
		if(!deadlock_detect(curr_proc()->mutex_available,
    80201b1c:	38490913          	addi	s2,s2,900
    80201b20:	4681                	li	a3,0
    80201b22:	962a                	add	a2,a2,a0
    80201b24:	95d2                	add	a1,a1,s4
    80201b26:	01298533          	add	a0,s3,s2
    80201b2a:	00000097          	auipc	ra,0x0
    80201b2e:	d9c080e7          	jalr	-612(ra) # 802018c6 <deadlock_detect>
    80201b32:	cd2d                	beqz	a0,80201bac <sys_mutex_lock+0x11a>
			curr_proc()->mutex_request[curr_thread()->tid][mutex_id]--;
			return -0xDEAD;
		}	
	}	
	// go on
	mutex_lock(&curr_proc()->mutex_pool[mutex_id]);
    80201b34:	00003097          	auipc	ra,0x3
    80201b38:	8aa080e7          	jalr	-1878(ra) # 802043de <curr_proc>
    80201b3c:	00149793          	slli	a5,s1,0x1
    80201b40:	97a6                	add	a5,a5,s1
    80201b42:	0796                	slli	a5,a5,0x5
    80201b44:	6905                	lui	s2,0x1
    80201b46:	ac090713          	addi	a4,s2,-1344 # ac0 <BASE_ADDRESS-0x801ff540>
    80201b4a:	97ba                	add	a5,a5,a4
    80201b4c:	953e                	add	a0,a0,a5
    80201b4e:	00002097          	auipc	ra,0x2
    80201b52:	848080e7          	jalr	-1976(ra) # 80203396 <mutex_lock>

	if(curr_proc()->enable_DLD)
    80201b56:	00003097          	auipc	ra,0x3
    80201b5a:	888080e7          	jalr	-1912(ra) # 802043de <curr_proc>
    80201b5e:	954a                	add	a0,a0,s2
    80201b60:	38052503          	lw	a0,896(a0)
    80201b64:	ed2d                	bnez	a0,80201bde <sys_mutex_lock+0x14c>
		curr_proc()->mutex_allocation[curr_thread()->tid][mutex_id]++;
		curr_proc()->mutex_request[curr_thread()->tid][mutex_id]--;
	}

	return 0;
}
    80201b66:	70a2                	ld	ra,40(sp)
    80201b68:	7402                	ld	s0,32(sp)
    80201b6a:	64e2                	ld	s1,24(sp)
    80201b6c:	6942                	ld	s2,16(sp)
    80201b6e:	69a2                	ld	s3,8(sp)
    80201b70:	6a02                	ld	s4,0(sp)
    80201b72:	6145                	addi	sp,sp,48
    80201b74:	8082                	ret
		errorf("Unexpected mutex id %d", mutex_id);
    80201b76:	00003097          	auipc	ra,0x3
    80201b7a:	828080e7          	jalr	-2008(ra) # 8020439e <procid>
    80201b7e:	892a                	mv	s2,a0
    80201b80:	00003097          	auipc	ra,0x3
    80201b84:	838080e7          	jalr	-1992(ra) # 802043b8 <threadid>
    80201b88:	87a6                	mv	a5,s1
    80201b8a:	872a                	mv	a4,a0
    80201b8c:	86ca                	mv	a3,s2
    80201b8e:	00006617          	auipc	a2,0x6
    80201b92:	50260613          	addi	a2,a2,1282 # 80208090 <e_text+0x90>
    80201b96:	45fd                	li	a1,31
    80201b98:	00007517          	auipc	a0,0x7
    80201b9c:	99050513          	addi	a0,a0,-1648 # 80208528 <e_text+0x528>
    80201ba0:	00001097          	auipc	ra,0x1
    80201ba4:	526080e7          	jalr	1318(ra) # 802030c6 <printf>
		return -1;
    80201ba8:	557d                	li	a0,-1
    80201baa:	bf75                	j	80201b66 <sys_mutex_lock+0xd4>
			curr_proc()->mutex_request[curr_thread()->tid][mutex_id]--;
    80201bac:	00003097          	auipc	ra,0x3
    80201bb0:	832080e7          	jalr	-1998(ra) # 802043de <curr_proc>
    80201bb4:	892a                	mv	s2,a0
    80201bb6:	00003097          	auipc	ra,0x3
    80201bba:	840080e7          	jalr	-1984(ra) # 802043f6 <curr_thread>
    80201bbe:	415c                	lw	a5,4(a0)
    80201bc0:	078e                	slli	a5,a5,0x3
    80201bc2:	97a6                	add	a5,a5,s1
    80201bc4:	078a                	slli	a5,a5,0x2
    80201bc6:	97ca                	add	a5,a5,s2
    80201bc8:	6705                	lui	a4,0x1
    80201bca:	97ba                	add	a5,a5,a4
    80201bcc:	5a47a703          	lw	a4,1444(a5) # 15a4 <BASE_ADDRESS-0x801fea5c>
    80201bd0:	377d                	addiw	a4,a4,-1
    80201bd2:	5ae7a223          	sw	a4,1444(a5)
			return -0xDEAD;
    80201bd6:	7549                	lui	a0,0xffff2
    80201bd8:	15350513          	addi	a0,a0,339 # ffffffffffff2153 <e_bss+0xffffffff7ecd4153>
    80201bdc:	b769                	j	80201b66 <sys_mutex_lock+0xd4>
		curr_proc()->mutex_available[mutex_id]--;
    80201bde:	00003097          	auipc	ra,0x3
    80201be2:	800080e7          	jalr	-2048(ra) # 802043de <curr_proc>
    80201be6:	00249793          	slli	a5,s1,0x2
    80201bea:	953e                	add	a0,a0,a5
    80201bec:	6985                	lui	s3,0x1
    80201bee:	954e                	add	a0,a0,s3
    80201bf0:	38452783          	lw	a5,900(a0)
    80201bf4:	37fd                	addiw	a5,a5,-1
    80201bf6:	38f52223          	sw	a5,900(a0)
		curr_proc()->mutex_allocation[curr_thread()->tid][mutex_id]++;
    80201bfa:	00002097          	auipc	ra,0x2
    80201bfe:	7e4080e7          	jalr	2020(ra) # 802043de <curr_proc>
    80201c02:	892a                	mv	s2,a0
    80201c04:	00002097          	auipc	ra,0x2
    80201c08:	7f2080e7          	jalr	2034(ra) # 802043f6 <curr_thread>
    80201c0c:	4148                	lw	a0,4(a0)
    80201c0e:	050e                	slli	a0,a0,0x3
    80201c10:	9526                	add	a0,a0,s1
    80201c12:	050a                	slli	a0,a0,0x2
    80201c14:	954a                	add	a0,a0,s2
    80201c16:	954e                	add	a0,a0,s3
    80201c18:	3a452783          	lw	a5,932(a0)
    80201c1c:	2785                	addiw	a5,a5,1
    80201c1e:	3af52223          	sw	a5,932(a0)
		curr_proc()->mutex_request[curr_thread()->tid][mutex_id]--;
    80201c22:	00002097          	auipc	ra,0x2
    80201c26:	7bc080e7          	jalr	1980(ra) # 802043de <curr_proc>
    80201c2a:	892a                	mv	s2,a0
    80201c2c:	00002097          	auipc	ra,0x2
    80201c30:	7ca080e7          	jalr	1994(ra) # 802043f6 <curr_thread>
    80201c34:	415c                	lw	a5,4(a0)
    80201c36:	078e                	slli	a5,a5,0x3
    80201c38:	94be                	add	s1,s1,a5
    80201c3a:	048a                	slli	s1,s1,0x2
    80201c3c:	94ca                	add	s1,s1,s2
    80201c3e:	94ce                	add	s1,s1,s3
    80201c40:	5a44a783          	lw	a5,1444(s1)
    80201c44:	37fd                	addiw	a5,a5,-1
    80201c46:	5af4a223          	sw	a5,1444(s1)
	return 0;
    80201c4a:	4501                	li	a0,0
    80201c4c:	bf29                	j	80201b66 <sys_mutex_lock+0xd4>

0000000080201c4e <sys_mutex_unlock>:

int sys_mutex_unlock(int mutex_id)
{
    80201c4e:	7179                	addi	sp,sp,-48
    80201c50:	f406                	sd	ra,40(sp)
    80201c52:	f022                	sd	s0,32(sp)
    80201c54:	ec26                	sd	s1,24(sp)
    80201c56:	e84a                	sd	s2,16(sp)
    80201c58:	e44e                	sd	s3,8(sp)
    80201c5a:	1800                	addi	s0,sp,48
    80201c5c:	84aa                	mv	s1,a0
	if (mutex_id < 0 || mutex_id >= curr_proc()->next_mutex_id) {
    80201c5e:	04054c63          	bltz	a0,80201cb6 <sys_mutex_unlock+0x68>
    80201c62:	00002097          	auipc	ra,0x2
    80201c66:	77c080e7          	jalr	1916(ra) # 802043de <curr_proc>
    80201c6a:	6785                	lui	a5,0x1
    80201c6c:	953e                	add	a0,a0,a5
    80201c6e:	ab052783          	lw	a5,-1360(a0)
    80201c72:	04f4f263          	bgeu	s1,a5,80201cb6 <sys_mutex_unlock+0x68>
		errorf("Unexpected mutex id %d", mutex_id);
		return -1;
	}
	// LAB5: (4-1) You may want to maintain some variables for detect here
	mutex_unlock(&curr_proc()->mutex_pool[mutex_id]);
    80201c76:	00002097          	auipc	ra,0x2
    80201c7a:	768080e7          	jalr	1896(ra) # 802043de <curr_proc>
    80201c7e:	00149793          	slli	a5,s1,0x1
    80201c82:	97a6                	add	a5,a5,s1
    80201c84:	0796                	slli	a5,a5,0x5
    80201c86:	6905                	lui	s2,0x1
    80201c88:	ac090713          	addi	a4,s2,-1344 # ac0 <BASE_ADDRESS-0x801ff540>
    80201c8c:	97ba                	add	a5,a5,a4
    80201c8e:	953e                	add	a0,a0,a5
    80201c90:	00001097          	auipc	ra,0x1
    80201c94:	7a0080e7          	jalr	1952(ra) # 80203430 <mutex_unlock>
	if(curr_proc()->enable_DLD)
    80201c98:	00002097          	auipc	ra,0x2
    80201c9c:	746080e7          	jalr	1862(ra) # 802043de <curr_proc>
    80201ca0:	954a                	add	a0,a0,s2
    80201ca2:	38052503          	lw	a0,896(a0)
    80201ca6:	e139                	bnez	a0,80201cec <sys_mutex_unlock+0x9e>
		curr_proc()->mutex_available[mutex_id]++;
		curr_proc()->mutex_allocation[curr_thread()->tid][mutex_id]--;
	}

	return 0;
}
    80201ca8:	70a2                	ld	ra,40(sp)
    80201caa:	7402                	ld	s0,32(sp)
    80201cac:	64e2                	ld	s1,24(sp)
    80201cae:	6942                	ld	s2,16(sp)
    80201cb0:	69a2                	ld	s3,8(sp)
    80201cb2:	6145                	addi	sp,sp,48
    80201cb4:	8082                	ret
		errorf("Unexpected mutex id %d", mutex_id);
    80201cb6:	00002097          	auipc	ra,0x2
    80201cba:	6e8080e7          	jalr	1768(ra) # 8020439e <procid>
    80201cbe:	892a                	mv	s2,a0
    80201cc0:	00002097          	auipc	ra,0x2
    80201cc4:	6f8080e7          	jalr	1784(ra) # 802043b8 <threadid>
    80201cc8:	87a6                	mv	a5,s1
    80201cca:	872a                	mv	a4,a0
    80201ccc:	86ca                	mv	a3,s2
    80201cce:	00006617          	auipc	a2,0x6
    80201cd2:	3c260613          	addi	a2,a2,962 # 80208090 <e_text+0x90>
    80201cd6:	45fd                	li	a1,31
    80201cd8:	00007517          	auipc	a0,0x7
    80201cdc:	85050513          	addi	a0,a0,-1968 # 80208528 <e_text+0x528>
    80201ce0:	00001097          	auipc	ra,0x1
    80201ce4:	3e6080e7          	jalr	998(ra) # 802030c6 <printf>
		return -1;
    80201ce8:	557d                	li	a0,-1
    80201cea:	bf7d                	j	80201ca8 <sys_mutex_unlock+0x5a>
		curr_proc()->mutex_available[mutex_id]++;
    80201cec:	00002097          	auipc	ra,0x2
    80201cf0:	6f2080e7          	jalr	1778(ra) # 802043de <curr_proc>
    80201cf4:	00249793          	slli	a5,s1,0x2
    80201cf8:	953e                	add	a0,a0,a5
    80201cfa:	6985                	lui	s3,0x1
    80201cfc:	954e                	add	a0,a0,s3
    80201cfe:	38452783          	lw	a5,900(a0)
    80201d02:	2785                	addiw	a5,a5,1
    80201d04:	38f52223          	sw	a5,900(a0)
		curr_proc()->mutex_allocation[curr_thread()->tid][mutex_id]--;
    80201d08:	00002097          	auipc	ra,0x2
    80201d0c:	6d6080e7          	jalr	1750(ra) # 802043de <curr_proc>
    80201d10:	892a                	mv	s2,a0
    80201d12:	00002097          	auipc	ra,0x2
    80201d16:	6e4080e7          	jalr	1764(ra) # 802043f6 <curr_thread>
    80201d1a:	415c                	lw	a5,4(a0)
    80201d1c:	078e                	slli	a5,a5,0x3
    80201d1e:	94be                	add	s1,s1,a5
    80201d20:	048a                	slli	s1,s1,0x2
    80201d22:	94ca                	add	s1,s1,s2
    80201d24:	94ce                	add	s1,s1,s3
    80201d26:	3a44a783          	lw	a5,932(s1)
    80201d2a:	37fd                	addiw	a5,a5,-1
    80201d2c:	3af4a223          	sw	a5,932(s1)
	return 0;
    80201d30:	4501                	li	a0,0
    80201d32:	bf9d                	j	80201ca8 <sys_mutex_unlock+0x5a>

0000000080201d34 <sys_semaphore_create>:

int sys_semaphore_create(int res_count)
{
    80201d34:	1101                	addi	sp,sp,-32
    80201d36:	ec06                	sd	ra,24(sp)
    80201d38:	e822                	sd	s0,16(sp)
    80201d3a:	e426                	sd	s1,8(sp)
    80201d3c:	e04a                	sd	s2,0(sp)
    80201d3e:	1000                	addi	s0,sp,32
    80201d40:	892a                	mv	s2,a0
	struct semaphore *s = semaphore_create(res_count);
    80201d42:	00001097          	auipc	ra,0x1
    80201d46:	75c080e7          	jalr	1884(ra) # 8020349e <semaphore_create>
	if (s == NULL) {
    80201d4a:	c931                	beqz	a0,80201d9e <sys_semaphore_create+0x6a>
    80201d4c:	84aa                	mv	s1,a0
		errorf("fail to create semaphore: out of resource");
		return -1;
	}
	// LAB5: (4-2) You may want to maintain some variables for detect here
	int sem_id = s - curr_proc()->semaphore_pool;
    80201d4e:	00002097          	auipc	ra,0x2
    80201d52:	690080e7          	jalr	1680(ra) # 802043de <curr_proc>
    80201d56:	6785                	lui	a5,0x1
    80201d58:	dc078793          	addi	a5,a5,-576 # dc0 <BASE_ADDRESS-0x801ff240>
    80201d5c:	953e                	add	a0,a0,a5
    80201d5e:	8c89                	sub	s1,s1,a0
    80201d60:	8495                	srai	s1,s1,0x5
    80201d62:	00007797          	auipc	a5,0x7
    80201d66:	27e78793          	addi	a5,a5,638 # 80208fe0 <SBI_SET_TIMER+0x8>
    80201d6a:	6388                	ld	a0,0(a5)
    80201d6c:	02a484bb          	mulw	s1,s1,a0
	debugf("create semaphore %d", sem_id);
    80201d70:	85a6                	mv	a1,s1
    80201d72:	4501                	li	a0,0
    80201d74:	ffffe097          	auipc	ra,0xffffe
    80201d78:	538080e7          	jalr	1336(ra) # 802002ac <dummy>

	curr_proc()->sem_available[sem_id] = res_count;
    80201d7c:	00002097          	auipc	ra,0x2
    80201d80:	662080e7          	jalr	1634(ra) # 802043de <curr_proc>
    80201d84:	5e848793          	addi	a5,s1,1512
    80201d88:	078a                	slli	a5,a5,0x2
    80201d8a:	953e                	add	a0,a0,a5
    80201d8c:	01252223          	sw	s2,4(a0)

	return sem_id;
}
    80201d90:	8526                	mv	a0,s1
    80201d92:	60e2                	ld	ra,24(sp)
    80201d94:	6442                	ld	s0,16(sp)
    80201d96:	64a2                	ld	s1,8(sp)
    80201d98:	6902                	ld	s2,0(sp)
    80201d9a:	6105                	addi	sp,sp,32
    80201d9c:	8082                	ret
		errorf("fail to create semaphore: out of resource");
    80201d9e:	00002097          	auipc	ra,0x2
    80201da2:	600080e7          	jalr	1536(ra) # 8020439e <procid>
    80201da6:	84aa                	mv	s1,a0
    80201da8:	00002097          	auipc	ra,0x2
    80201dac:	610080e7          	jalr	1552(ra) # 802043b8 <threadid>
    80201db0:	872a                	mv	a4,a0
    80201db2:	86a6                	mv	a3,s1
    80201db4:	00006617          	auipc	a2,0x6
    80201db8:	2dc60613          	addi	a2,a2,732 # 80208090 <e_text+0x90>
    80201dbc:	45fd                	li	a1,31
    80201dbe:	00006517          	auipc	a0,0x6
    80201dc2:	79a50513          	addi	a0,a0,1946 # 80208558 <e_text+0x558>
    80201dc6:	00001097          	auipc	ra,0x1
    80201dca:	300080e7          	jalr	768(ra) # 802030c6 <printf>
		return -1;
    80201dce:	54fd                	li	s1,-1
    80201dd0:	b7c1                	j	80201d90 <sys_semaphore_create+0x5c>

0000000080201dd2 <sys_semaphore_up>:

int sys_semaphore_up(int semaphore_id)
{
    80201dd2:	7179                	addi	sp,sp,-48
    80201dd4:	f406                	sd	ra,40(sp)
    80201dd6:	f022                	sd	s0,32(sp)
    80201dd8:	ec26                	sd	s1,24(sp)
    80201dda:	e84a                	sd	s2,16(sp)
    80201ddc:	e44e                	sd	s3,8(sp)
    80201dde:	1800                	addi	s0,sp,48
    80201de0:	84aa                	mv	s1,a0
	if (semaphore_id < 0 ||
    80201de2:	04054c63          	bltz	a0,80201e3a <sys_semaphore_up+0x68>
	    semaphore_id >= curr_proc()->next_semaphore_id) {
    80201de6:	00002097          	auipc	ra,0x2
    80201dea:	5f8080e7          	jalr	1528(ra) # 802043de <curr_proc>
    80201dee:	6785                	lui	a5,0x1
    80201df0:	953e                	add	a0,a0,a5
	if (semaphore_id < 0 ||
    80201df2:	ab452783          	lw	a5,-1356(a0)
    80201df6:	04f4f263          	bgeu	s1,a5,80201e3a <sys_semaphore_up+0x68>
		errorf("Unexpected semaphore id %d", semaphore_id);
		return -1;
	}
	// LAB5: (4-2) You may want to maintain some variables for detect here
	semaphore_up(&curr_proc()->semaphore_pool[semaphore_id]);
    80201dfa:	00002097          	auipc	ra,0x2
    80201dfe:	5e4080e7          	jalr	1508(ra) # 802043de <curr_proc>
    80201e02:	00149793          	slli	a5,s1,0x1
    80201e06:	97a6                	add	a5,a5,s1
    80201e08:	0796                	slli	a5,a5,0x5
    80201e0a:	6905                	lui	s2,0x1
    80201e0c:	dc090713          	addi	a4,s2,-576 # dc0 <BASE_ADDRESS-0x801ff240>
    80201e10:	97ba                	add	a5,a5,a4
    80201e12:	953e                	add	a0,a0,a5
    80201e14:	00001097          	auipc	ra,0x1
    80201e18:	706080e7          	jalr	1798(ra) # 8020351a <semaphore_up>
	if(curr_proc()->enable_DLD )
    80201e1c:	00002097          	auipc	ra,0x2
    80201e20:	5c2080e7          	jalr	1474(ra) # 802043de <curr_proc>
    80201e24:	954a                	add	a0,a0,s2
    80201e26:	38052503          	lw	a0,896(a0)
    80201e2a:	e139                	bnez	a0,80201e70 <sys_semaphore_up+0x9e>
	{
		curr_proc()->sem_available[semaphore_id]++;
		curr_proc()->sem_allocation[curr_thread()->tid][semaphore_id]--;
	}
	return 0;
}
    80201e2c:	70a2                	ld	ra,40(sp)
    80201e2e:	7402                	ld	s0,32(sp)
    80201e30:	64e2                	ld	s1,24(sp)
    80201e32:	6942                	ld	s2,16(sp)
    80201e34:	69a2                	ld	s3,8(sp)
    80201e36:	6145                	addi	sp,sp,48
    80201e38:	8082                	ret
		errorf("Unexpected semaphore id %d", semaphore_id);
    80201e3a:	00002097          	auipc	ra,0x2
    80201e3e:	564080e7          	jalr	1380(ra) # 8020439e <procid>
    80201e42:	892a                	mv	s2,a0
    80201e44:	00002097          	auipc	ra,0x2
    80201e48:	574080e7          	jalr	1396(ra) # 802043b8 <threadid>
    80201e4c:	87a6                	mv	a5,s1
    80201e4e:	872a                	mv	a4,a0
    80201e50:	86ca                	mv	a3,s2
    80201e52:	00006617          	auipc	a2,0x6
    80201e56:	23e60613          	addi	a2,a2,574 # 80208090 <e_text+0x90>
    80201e5a:	45fd                	li	a1,31
    80201e5c:	00006517          	auipc	a0,0x6
    80201e60:	73c50513          	addi	a0,a0,1852 # 80208598 <e_text+0x598>
    80201e64:	00001097          	auipc	ra,0x1
    80201e68:	262080e7          	jalr	610(ra) # 802030c6 <printf>
		return -1;
    80201e6c:	557d                	li	a0,-1
    80201e6e:	bf7d                	j	80201e2c <sys_semaphore_up+0x5a>
		curr_proc()->sem_available[semaphore_id]++;
    80201e70:	00002097          	auipc	ra,0x2
    80201e74:	56e080e7          	jalr	1390(ra) # 802043de <curr_proc>
    80201e78:	00249793          	slli	a5,s1,0x2
    80201e7c:	953e                	add	a0,a0,a5
    80201e7e:	6985                	lui	s3,0x1
    80201e80:	954e                	add	a0,a0,s3
    80201e82:	7a452783          	lw	a5,1956(a0)
    80201e86:	2785                	addiw	a5,a5,1
    80201e88:	7af52223          	sw	a5,1956(a0)
		curr_proc()->sem_allocation[curr_thread()->tid][semaphore_id]--;
    80201e8c:	00002097          	auipc	ra,0x2
    80201e90:	552080e7          	jalr	1362(ra) # 802043de <curr_proc>
    80201e94:	892a                	mv	s2,a0
    80201e96:	00002097          	auipc	ra,0x2
    80201e9a:	560080e7          	jalr	1376(ra) # 802043f6 <curr_thread>
    80201e9e:	415c                	lw	a5,4(a0)
    80201ea0:	078e                	slli	a5,a5,0x3
    80201ea2:	94be                	add	s1,s1,a5
    80201ea4:	048a                	slli	s1,s1,0x2
    80201ea6:	94ca                	add	s1,s1,s2
    80201ea8:	94ce                	add	s1,s1,s3
    80201eaa:	7c44a783          	lw	a5,1988(s1)
    80201eae:	37fd                	addiw	a5,a5,-1
    80201eb0:	7cf4a223          	sw	a5,1988(s1)
	return 0;
    80201eb4:	4501                	li	a0,0
    80201eb6:	bf9d                	j	80201e2c <sys_semaphore_up+0x5a>

0000000080201eb8 <sys_semaphore_down>:

int sys_semaphore_down(int semaphore_id)
{
    80201eb8:	7179                	addi	sp,sp,-48
    80201eba:	f406                	sd	ra,40(sp)
    80201ebc:	f022                	sd	s0,32(sp)
    80201ebe:	ec26                	sd	s1,24(sp)
    80201ec0:	e84a                	sd	s2,16(sp)
    80201ec2:	e44e                	sd	s3,8(sp)
    80201ec4:	e052                	sd	s4,0(sp)
    80201ec6:	1800                	addi	s0,sp,48
    80201ec8:	84aa                	mv	s1,a0
	if (semaphore_id < 0 ||
    80201eca:	0c054a63          	bltz	a0,80201f9e <sys_semaphore_down+0xe6>
	    semaphore_id >= curr_proc()->next_semaphore_id) {
    80201ece:	00002097          	auipc	ra,0x2
    80201ed2:	510080e7          	jalr	1296(ra) # 802043de <curr_proc>
    80201ed6:	6785                	lui	a5,0x1
    80201ed8:	953e                	add	a0,a0,a5
	if (semaphore_id < 0 ||
    80201eda:	ab452783          	lw	a5,-1356(a0)
    80201ede:	0cf4f063          	bgeu	s1,a5,80201f9e <sys_semaphore_down+0xe6>
		errorf("Unexpected semaphore id %d", semaphore_id);
		return -1;
	}
	// LAB5: (4-2) You may want to maintain some variables for detect
	//       or call your detect algorithm here
	if(curr_proc()->enable_DLD )
    80201ee2:	00002097          	auipc	ra,0x2
    80201ee6:	4fc080e7          	jalr	1276(ra) # 802043de <curr_proc>
    80201eea:	6785                	lui	a5,0x1
    80201eec:	953e                	add	a0,a0,a5
    80201eee:	38052783          	lw	a5,896(a0)
    80201ef2:	c7ad                	beqz	a5,80201f5c <sys_semaphore_down+0xa4>
	{
		curr_proc()->sem_request[curr_thread()->tid][semaphore_id]++;
    80201ef4:	00002097          	auipc	ra,0x2
    80201ef8:	4ea080e7          	jalr	1258(ra) # 802043de <curr_proc>
    80201efc:	892a                	mv	s2,a0
    80201efe:	00002097          	auipc	ra,0x2
    80201f02:	4f8080e7          	jalr	1272(ra) # 802043f6 <curr_thread>
    80201f06:	4148                	lw	a0,4(a0)
    80201f08:	050e                	slli	a0,a0,0x3
    80201f0a:	9526                	add	a0,a0,s1
    80201f0c:	050a                	slli	a0,a0,0x2
    80201f0e:	954a                	add	a0,a0,s2
    80201f10:	6909                	lui	s2,0x2
    80201f12:	954a                	add	a0,a0,s2
    80201f14:	9c452783          	lw	a5,-1596(a0)
    80201f18:	2785                	addiw	a5,a5,1
    80201f1a:	9cf52223          	sw	a5,-1596(a0)
		
		if(!deadlock_detect(curr_proc()->sem_available,
    80201f1e:	00002097          	auipc	ra,0x2
    80201f22:	4c0080e7          	jalr	1216(ra) # 802043de <curr_proc>
    80201f26:	89aa                	mv	s3,a0
										curr_proc()->sem_allocation,
    80201f28:	00002097          	auipc	ra,0x2
    80201f2c:	4b6080e7          	jalr	1206(ra) # 802043de <curr_proc>
    80201f30:	8a2a                	mv	s4,a0
										curr_proc()->sem_request, 
    80201f32:	00002097          	auipc	ra,0x2
    80201f36:	4ac080e7          	jalr	1196(ra) # 802043de <curr_proc>
    80201f3a:	9c490613          	addi	a2,s2,-1596 # 19c4 <BASE_ADDRESS-0x801fe63c>
										curr_proc()->sem_allocation,
    80201f3e:	6785                	lui	a5,0x1
    80201f40:	7c478593          	addi	a1,a5,1988 # 17c4 <BASE_ADDRESS-0x801fe83c>
		if(!deadlock_detect(curr_proc()->sem_available,
    80201f44:	7a478793          	addi	a5,a5,1956
    80201f48:	4685                	li	a3,1
    80201f4a:	962a                	add	a2,a2,a0
    80201f4c:	95d2                	add	a1,a1,s4
    80201f4e:	00f98533          	add	a0,s3,a5
    80201f52:	00000097          	auipc	ra,0x0
    80201f56:	974080e7          	jalr	-1676(ra) # 802018c6 <deadlock_detect>
    80201f5a:	cd2d                	beqz	a0,80201fd4 <sys_semaphore_down+0x11c>
			curr_proc()->sem_request[curr_thread()->tid][semaphore_id]--;
			return -0xDEAD;
		}
	}	
	// go on
	semaphore_down(&curr_proc()->semaphore_pool[semaphore_id]);
    80201f5c:	00002097          	auipc	ra,0x2
    80201f60:	482080e7          	jalr	1154(ra) # 802043de <curr_proc>
    80201f64:	00149793          	slli	a5,s1,0x1
    80201f68:	97a6                	add	a5,a5,s1
    80201f6a:	0796                	slli	a5,a5,0x5
    80201f6c:	6905                	lui	s2,0x1
    80201f6e:	dc090713          	addi	a4,s2,-576 # dc0 <BASE_ADDRESS-0x801ff240>
    80201f72:	97ba                	add	a5,a5,a4
    80201f74:	953e                	add	a0,a0,a5
    80201f76:	00001097          	auipc	ra,0x1
    80201f7a:	648080e7          	jalr	1608(ra) # 802035be <semaphore_down>
	if(curr_proc()->enable_DLD )
    80201f7e:	00002097          	auipc	ra,0x2
    80201f82:	460080e7          	jalr	1120(ra) # 802043de <curr_proc>
    80201f86:	954a                	add	a0,a0,s2
    80201f88:	38052503          	lw	a0,896(a0)
    80201f8c:	ed2d                	bnez	a0,80202006 <sys_semaphore_down+0x14e>
		curr_proc()->sem_allocation[curr_thread()->tid][semaphore_id]++;
		curr_proc()->sem_request[curr_thread()->tid][semaphore_id]--;
	}

	return 0;
}
    80201f8e:	70a2                	ld	ra,40(sp)
    80201f90:	7402                	ld	s0,32(sp)
    80201f92:	64e2                	ld	s1,24(sp)
    80201f94:	6942                	ld	s2,16(sp)
    80201f96:	69a2                	ld	s3,8(sp)
    80201f98:	6a02                	ld	s4,0(sp)
    80201f9a:	6145                	addi	sp,sp,48
    80201f9c:	8082                	ret
		errorf("Unexpected semaphore id %d", semaphore_id);
    80201f9e:	00002097          	auipc	ra,0x2
    80201fa2:	400080e7          	jalr	1024(ra) # 8020439e <procid>
    80201fa6:	892a                	mv	s2,a0
    80201fa8:	00002097          	auipc	ra,0x2
    80201fac:	410080e7          	jalr	1040(ra) # 802043b8 <threadid>
    80201fb0:	87a6                	mv	a5,s1
    80201fb2:	872a                	mv	a4,a0
    80201fb4:	86ca                	mv	a3,s2
    80201fb6:	00006617          	auipc	a2,0x6
    80201fba:	0da60613          	addi	a2,a2,218 # 80208090 <e_text+0x90>
    80201fbe:	45fd                	li	a1,31
    80201fc0:	00006517          	auipc	a0,0x6
    80201fc4:	5d850513          	addi	a0,a0,1496 # 80208598 <e_text+0x598>
    80201fc8:	00001097          	auipc	ra,0x1
    80201fcc:	0fe080e7          	jalr	254(ra) # 802030c6 <printf>
		return -1;
    80201fd0:	557d                	li	a0,-1
    80201fd2:	bf75                	j	80201f8e <sys_semaphore_down+0xd6>
			curr_proc()->sem_request[curr_thread()->tid][semaphore_id]--;
    80201fd4:	00002097          	auipc	ra,0x2
    80201fd8:	40a080e7          	jalr	1034(ra) # 802043de <curr_proc>
    80201fdc:	892a                	mv	s2,a0
    80201fde:	00002097          	auipc	ra,0x2
    80201fe2:	418080e7          	jalr	1048(ra) # 802043f6 <curr_thread>
    80201fe6:	415c                	lw	a5,4(a0)
    80201fe8:	078e                	slli	a5,a5,0x3
    80201fea:	97a6                	add	a5,a5,s1
    80201fec:	078a                	slli	a5,a5,0x2
    80201fee:	97ca                	add	a5,a5,s2
    80201ff0:	6709                	lui	a4,0x2
    80201ff2:	97ba                	add	a5,a5,a4
    80201ff4:	9c47a703          	lw	a4,-1596(a5)
    80201ff8:	377d                	addiw	a4,a4,-1
    80201ffa:	9ce7a223          	sw	a4,-1596(a5)
			return -0xDEAD;
    80201ffe:	7549                	lui	a0,0xffff2
    80202000:	15350513          	addi	a0,a0,339 # ffffffffffff2153 <e_bss+0xffffffff7ecd4153>
    80202004:	b769                	j	80201f8e <sys_semaphore_down+0xd6>
		curr_proc()->sem_available[semaphore_id]--;
    80202006:	00002097          	auipc	ra,0x2
    8020200a:	3d8080e7          	jalr	984(ra) # 802043de <curr_proc>
    8020200e:	00249793          	slli	a5,s1,0x2
    80202012:	953e                	add	a0,a0,a5
    80202014:	6985                	lui	s3,0x1
    80202016:	954e                	add	a0,a0,s3
    80202018:	7a452783          	lw	a5,1956(a0)
    8020201c:	37fd                	addiw	a5,a5,-1
    8020201e:	7af52223          	sw	a5,1956(a0)
		curr_proc()->sem_allocation[curr_thread()->tid][semaphore_id]++;
    80202022:	00002097          	auipc	ra,0x2
    80202026:	3bc080e7          	jalr	956(ra) # 802043de <curr_proc>
    8020202a:	892a                	mv	s2,a0
    8020202c:	00002097          	auipc	ra,0x2
    80202030:	3ca080e7          	jalr	970(ra) # 802043f6 <curr_thread>
    80202034:	4148                	lw	a0,4(a0)
    80202036:	050e                	slli	a0,a0,0x3
    80202038:	9526                	add	a0,a0,s1
    8020203a:	050a                	slli	a0,a0,0x2
    8020203c:	954a                	add	a0,a0,s2
    8020203e:	954e                	add	a0,a0,s3
    80202040:	7c452783          	lw	a5,1988(a0)
    80202044:	2785                	addiw	a5,a5,1
    80202046:	7cf52223          	sw	a5,1988(a0)
		curr_proc()->sem_request[curr_thread()->tid][semaphore_id]--;
    8020204a:	00002097          	auipc	ra,0x2
    8020204e:	394080e7          	jalr	916(ra) # 802043de <curr_proc>
    80202052:	892a                	mv	s2,a0
    80202054:	00002097          	auipc	ra,0x2
    80202058:	3a2080e7          	jalr	930(ra) # 802043f6 <curr_thread>
    8020205c:	415c                	lw	a5,4(a0)
    8020205e:	078e                	slli	a5,a5,0x3
    80202060:	94be                	add	s1,s1,a5
    80202062:	048a                	slli	s1,s1,0x2
    80202064:	94ca                	add	s1,s1,s2
    80202066:	6789                	lui	a5,0x2
    80202068:	94be                	add	s1,s1,a5
    8020206a:	9c44a783          	lw	a5,-1596(s1)
    8020206e:	37fd                	addiw	a5,a5,-1
    80202070:	9cf4a223          	sw	a5,-1596(s1)
	return 0;
    80202074:	4501                	li	a0,0
    80202076:	bf21                	j	80201f8e <sys_semaphore_down+0xd6>

0000000080202078 <sys_condvar_create>:

int sys_condvar_create()
{
    80202078:	1101                	addi	sp,sp,-32
    8020207a:	ec06                	sd	ra,24(sp)
    8020207c:	e822                	sd	s0,16(sp)
    8020207e:	e426                	sd	s1,8(sp)
    80202080:	1000                	addi	s0,sp,32
	struct condvar *c = condvar_create();
    80202082:	00001097          	auipc	ra,0x1
    80202086:	5b8080e7          	jalr	1464(ra) # 8020363a <condvar_create>
	if (c == NULL) {
    8020208a:	cd1d                	beqz	a0,802020c8 <sys_condvar_create+0x50>
    8020208c:	84aa                	mv	s1,a0
		errorf("fail to create condvar: out of resource");
		return -1;
	}
	int cond_id = c - curr_proc()->condvar_pool;
    8020208e:	00002097          	auipc	ra,0x2
    80202092:	350080e7          	jalr	848(ra) # 802043de <curr_proc>
    80202096:	6785                	lui	a5,0x1
    80202098:	0c078793          	addi	a5,a5,192 # 10c0 <BASE_ADDRESS-0x801fef40>
    8020209c:	953e                	add	a0,a0,a5
    8020209e:	8c89                	sub	s1,s1,a0
    802020a0:	848d                	srai	s1,s1,0x3
    802020a2:	00007797          	auipc	a5,0x7
    802020a6:	f4678793          	addi	a5,a5,-186 # 80208fe8 <SBI_SET_TIMER+0x10>
    802020aa:	6388                	ld	a0,0(a5)
    802020ac:	02a484bb          	mulw	s1,s1,a0
	debugf("create condvar %d", cond_id);
    802020b0:	85a6                	mv	a1,s1
    802020b2:	4501                	li	a0,0
    802020b4:	ffffe097          	auipc	ra,0xffffe
    802020b8:	1f8080e7          	jalr	504(ra) # 802002ac <dummy>
	return cond_id;
}
    802020bc:	8526                	mv	a0,s1
    802020be:	60e2                	ld	ra,24(sp)
    802020c0:	6442                	ld	s0,16(sp)
    802020c2:	64a2                	ld	s1,8(sp)
    802020c4:	6105                	addi	sp,sp,32
    802020c6:	8082                	ret
		errorf("fail to create condvar: out of resource");
    802020c8:	00002097          	auipc	ra,0x2
    802020cc:	2d6080e7          	jalr	726(ra) # 8020439e <procid>
    802020d0:	84aa                	mv	s1,a0
    802020d2:	00002097          	auipc	ra,0x2
    802020d6:	2e6080e7          	jalr	742(ra) # 802043b8 <threadid>
    802020da:	872a                	mv	a4,a0
    802020dc:	86a6                	mv	a3,s1
    802020de:	00006617          	auipc	a2,0x6
    802020e2:	fb260613          	addi	a2,a2,-78 # 80208090 <e_text+0x90>
    802020e6:	45fd                	li	a1,31
    802020e8:	00006517          	auipc	a0,0x6
    802020ec:	4e050513          	addi	a0,a0,1248 # 802085c8 <e_text+0x5c8>
    802020f0:	00001097          	auipc	ra,0x1
    802020f4:	fd6080e7          	jalr	-42(ra) # 802030c6 <printf>
		return -1;
    802020f8:	54fd                	li	s1,-1
    802020fa:	b7c9                	j	802020bc <sys_condvar_create+0x44>

00000000802020fc <sys_condvar_signal>:

int sys_condvar_signal(int cond_id)
{
    802020fc:	1101                	addi	sp,sp,-32
    802020fe:	ec06                	sd	ra,24(sp)
    80202100:	e822                	sd	s0,16(sp)
    80202102:	e426                	sd	s1,8(sp)
    80202104:	e04a                	sd	s2,0(sp)
    80202106:	1000                	addi	s0,sp,32
    80202108:	84aa                	mv	s1,a0
	if (cond_id < 0 || cond_id >= curr_proc()->next_condvar_id) {
    8020210a:	04054463          	bltz	a0,80202152 <sys_condvar_signal+0x56>
    8020210e:	00002097          	auipc	ra,0x2
    80202112:	2d0080e7          	jalr	720(ra) # 802043de <curr_proc>
    80202116:	6785                	lui	a5,0x1
    80202118:	953e                	add	a0,a0,a5
    8020211a:	ab852783          	lw	a5,-1352(a0)
    8020211e:	02f4fa63          	bgeu	s1,a5,80202152 <sys_condvar_signal+0x56>
		errorf("Unexpected condvar id %d", cond_id);
		return -1;
	}
	cond_signal(&curr_proc()->condvar_pool[cond_id]);
    80202122:	00002097          	auipc	ra,0x2
    80202126:	2bc080e7          	jalr	700(ra) # 802043de <curr_proc>
    8020212a:	05800793          	li	a5,88
    8020212e:	02f484b3          	mul	s1,s1,a5
    80202132:	6785                	lui	a5,0x1
    80202134:	0c078793          	addi	a5,a5,192 # 10c0 <BASE_ADDRESS-0x801fef40>
    80202138:	94be                	add	s1,s1,a5
    8020213a:	9526                	add	a0,a0,s1
    8020213c:	00001097          	auipc	ra,0x1
    80202140:	564080e7          	jalr	1380(ra) # 802036a0 <cond_signal>
	return 0;
    80202144:	4501                	li	a0,0
}
    80202146:	60e2                	ld	ra,24(sp)
    80202148:	6442                	ld	s0,16(sp)
    8020214a:	64a2                	ld	s1,8(sp)
    8020214c:	6902                	ld	s2,0(sp)
    8020214e:	6105                	addi	sp,sp,32
    80202150:	8082                	ret
		errorf("Unexpected condvar id %d", cond_id);
    80202152:	00002097          	auipc	ra,0x2
    80202156:	24c080e7          	jalr	588(ra) # 8020439e <procid>
    8020215a:	892a                	mv	s2,a0
    8020215c:	00002097          	auipc	ra,0x2
    80202160:	25c080e7          	jalr	604(ra) # 802043b8 <threadid>
    80202164:	87a6                	mv	a5,s1
    80202166:	872a                	mv	a4,a0
    80202168:	86ca                	mv	a3,s2
    8020216a:	00006617          	auipc	a2,0x6
    8020216e:	f2660613          	addi	a2,a2,-218 # 80208090 <e_text+0x90>
    80202172:	45fd                	li	a1,31
    80202174:	00006517          	auipc	a0,0x6
    80202178:	49450513          	addi	a0,a0,1172 # 80208608 <e_text+0x608>
    8020217c:	00001097          	auipc	ra,0x1
    80202180:	f4a080e7          	jalr	-182(ra) # 802030c6 <printf>
		return -1;
    80202184:	557d                	li	a0,-1
    80202186:	b7c1                	j	80202146 <sys_condvar_signal+0x4a>

0000000080202188 <sys_condvar_wait>:

int sys_condvar_wait(int cond_id, int mutex_id)
{
    80202188:	7179                	addi	sp,sp,-48
    8020218a:	f406                	sd	ra,40(sp)
    8020218c:	f022                	sd	s0,32(sp)
    8020218e:	ec26                	sd	s1,24(sp)
    80202190:	e84a                	sd	s2,16(sp)
    80202192:	e44e                	sd	s3,8(sp)
    80202194:	1800                	addi	s0,sp,48
    80202196:	84aa                	mv	s1,a0
	if (cond_id < 0 || cond_id >= curr_proc()->next_condvar_id) {
    80202198:	06054f63          	bltz	a0,80202216 <sys_condvar_wait+0x8e>
    8020219c:	892e                	mv	s2,a1
    8020219e:	00002097          	auipc	ra,0x2
    802021a2:	240080e7          	jalr	576(ra) # 802043de <curr_proc>
    802021a6:	6785                	lui	a5,0x1
    802021a8:	953e                	add	a0,a0,a5
    802021aa:	ab852783          	lw	a5,-1352(a0)
    802021ae:	06f4f463          	bgeu	s1,a5,80202216 <sys_condvar_wait+0x8e>
		errorf("Unexpected condvar id %d", cond_id);
		return -1;
	}
	if (mutex_id < 0 || mutex_id >= curr_proc()->next_mutex_id) {
    802021b2:	08094d63          	bltz	s2,8020224c <sys_condvar_wait+0xc4>
    802021b6:	00002097          	auipc	ra,0x2
    802021ba:	228080e7          	jalr	552(ra) # 802043de <curr_proc>
    802021be:	6785                	lui	a5,0x1
    802021c0:	953e                	add	a0,a0,a5
    802021c2:	ab052783          	lw	a5,-1360(a0)
    802021c6:	08f97363          	bgeu	s2,a5,8020224c <sys_condvar_wait+0xc4>
		errorf("Unexpected mutex id %d", mutex_id);
		return -1;
	}
	cond_wait(&curr_proc()->condvar_pool[cond_id],
    802021ca:	00002097          	auipc	ra,0x2
    802021ce:	214080e7          	jalr	532(ra) # 802043de <curr_proc>
    802021d2:	05800793          	li	a5,88
    802021d6:	02f484b3          	mul	s1,s1,a5
    802021da:	6985                	lui	s3,0x1
    802021dc:	0c098793          	addi	a5,s3,192 # 10c0 <BASE_ADDRESS-0x801fef40>
    802021e0:	94be                	add	s1,s1,a5
    802021e2:	94aa                	add	s1,s1,a0
		  &curr_proc()->mutex_pool[mutex_id]);
    802021e4:	00002097          	auipc	ra,0x2
    802021e8:	1fa080e7          	jalr	506(ra) # 802043de <curr_proc>
	cond_wait(&curr_proc()->condvar_pool[cond_id],
    802021ec:	00191593          	slli	a1,s2,0x1
    802021f0:	95ca                	add	a1,a1,s2
    802021f2:	0596                	slli	a1,a1,0x5
    802021f4:	ac098993          	addi	s3,s3,-1344
    802021f8:	95ce                	add	a1,a1,s3
    802021fa:	95aa                	add	a1,a1,a0
    802021fc:	8526                	mv	a0,s1
    802021fe:	00001097          	auipc	ra,0x1
    80202202:	4ee080e7          	jalr	1262(ra) # 802036ec <cond_wait>
	return 0;
    80202206:	4501                	li	a0,0
}
    80202208:	70a2                	ld	ra,40(sp)
    8020220a:	7402                	ld	s0,32(sp)
    8020220c:	64e2                	ld	s1,24(sp)
    8020220e:	6942                	ld	s2,16(sp)
    80202210:	69a2                	ld	s3,8(sp)
    80202212:	6145                	addi	sp,sp,48
    80202214:	8082                	ret
		errorf("Unexpected condvar id %d", cond_id);
    80202216:	00002097          	auipc	ra,0x2
    8020221a:	188080e7          	jalr	392(ra) # 8020439e <procid>
    8020221e:	892a                	mv	s2,a0
    80202220:	00002097          	auipc	ra,0x2
    80202224:	198080e7          	jalr	408(ra) # 802043b8 <threadid>
    80202228:	87a6                	mv	a5,s1
    8020222a:	872a                	mv	a4,a0
    8020222c:	86ca                	mv	a3,s2
    8020222e:	00006617          	auipc	a2,0x6
    80202232:	e6260613          	addi	a2,a2,-414 # 80208090 <e_text+0x90>
    80202236:	45fd                	li	a1,31
    80202238:	00006517          	auipc	a0,0x6
    8020223c:	3d050513          	addi	a0,a0,976 # 80208608 <e_text+0x608>
    80202240:	00001097          	auipc	ra,0x1
    80202244:	e86080e7          	jalr	-378(ra) # 802030c6 <printf>
		return -1;
    80202248:	557d                	li	a0,-1
    8020224a:	bf7d                	j	80202208 <sys_condvar_wait+0x80>
		errorf("Unexpected mutex id %d", mutex_id);
    8020224c:	00002097          	auipc	ra,0x2
    80202250:	152080e7          	jalr	338(ra) # 8020439e <procid>
    80202254:	84aa                	mv	s1,a0
    80202256:	00002097          	auipc	ra,0x2
    8020225a:	162080e7          	jalr	354(ra) # 802043b8 <threadid>
    8020225e:	87ca                	mv	a5,s2
    80202260:	872a                	mv	a4,a0
    80202262:	86a6                	mv	a3,s1
    80202264:	00006617          	auipc	a2,0x6
    80202268:	e2c60613          	addi	a2,a2,-468 # 80208090 <e_text+0x90>
    8020226c:	45fd                	li	a1,31
    8020226e:	00006517          	auipc	a0,0x6
    80202272:	2ba50513          	addi	a0,a0,698 # 80208528 <e_text+0x528>
    80202276:	00001097          	auipc	ra,0x1
    8020227a:	e50080e7          	jalr	-432(ra) # 802030c6 <printf>
		return -1;
    8020227e:	557d                	li	a0,-1
    80202280:	b761                	j	80202208 <sys_condvar_wait+0x80>

0000000080202282 <sys_enable_deadlock_detect>:

// LAB5: (2) you may need to define function enable_deadlock_detect here
int sys_enable_deadlock_detect(int is_enable)
{
    80202282:	1101                	addi	sp,sp,-32
    80202284:	ec06                	sd	ra,24(sp)
    80202286:	e822                	sd	s0,16(sp)
    80202288:	e426                	sd	s1,8(sp)
    8020228a:	1000                	addi	s0,sp,32
	if(is_enable != 1 && is_enable != 0){
    8020228c:	4785                	li	a5,1
    8020228e:	02a7e163          	bltu	a5,a0,802022b0 <sys_enable_deadlock_detect+0x2e>
    80202292:	84aa                	mv	s1,a0
		errorf("Unexpected parameter.\n");
		return -1;
	}
	struct proc *p = curr_proc();
    80202294:	00002097          	auipc	ra,0x2
    80202298:	14a080e7          	jalr	330(ra) # 802043de <curr_proc>
	p->enable_DLD = is_enable;
    8020229c:	6785                	lui	a5,0x1
    8020229e:	953e                	add	a0,a0,a5
    802022a0:	38952023          	sw	s1,896(a0)
	return 0;
    802022a4:	4501                	li	a0,0
}
    802022a6:	60e2                	ld	ra,24(sp)
    802022a8:	6442                	ld	s0,16(sp)
    802022aa:	64a2                	ld	s1,8(sp)
    802022ac:	6105                	addi	sp,sp,32
    802022ae:	8082                	ret
		errorf("Unexpected parameter.\n");
    802022b0:	00002097          	auipc	ra,0x2
    802022b4:	0ee080e7          	jalr	238(ra) # 8020439e <procid>
    802022b8:	84aa                	mv	s1,a0
    802022ba:	00002097          	auipc	ra,0x2
    802022be:	0fe080e7          	jalr	254(ra) # 802043b8 <threadid>
    802022c2:	872a                	mv	a4,a0
    802022c4:	86a6                	mv	a3,s1
    802022c6:	00006617          	auipc	a2,0x6
    802022ca:	dca60613          	addi	a2,a2,-566 # 80208090 <e_text+0x90>
    802022ce:	45fd                	li	a1,31
    802022d0:	00006517          	auipc	a0,0x6
    802022d4:	36850513          	addi	a0,a0,872 # 80208638 <e_text+0x638>
    802022d8:	00001097          	auipc	ra,0x1
    802022dc:	dee080e7          	jalr	-530(ra) # 802030c6 <printf>
		return -1;
    802022e0:	557d                	li	a0,-1
    802022e2:	b7d1                	j	802022a6 <sys_enable_deadlock_detect+0x24>

00000000802022e4 <syscall>:

extern char trap_page[];

void syscall()
{
    802022e4:	7139                	addi	sp,sp,-64
    802022e6:	fc06                	sd	ra,56(sp)
    802022e8:	f822                	sd	s0,48(sp)
    802022ea:	f426                	sd	s1,40(sp)
    802022ec:	f04a                	sd	s2,32(sp)
    802022ee:	ec4e                	sd	s3,24(sp)
    802022f0:	e852                	sd	s4,16(sp)
    802022f2:	e456                	sd	s5,8(sp)
    802022f4:	0080                	addi	s0,sp,64
	struct trapframe *trapframe = curr_thread()->trapframe;
    802022f6:	00002097          	auipc	ra,0x2
    802022fa:	100080e7          	jalr	256(ra) # 802043f6 <curr_thread>
    802022fe:	711c                	ld	a5,32(a0)
	int id = trapframe->a7, ret;
    80202300:	77d8                	ld	a4,168(a5)
    80202302:	0007049b          	sext.w	s1,a4
	uint64 args[6] = { trapframe->a0, trapframe->a1, trapframe->a2,
    80202306:	0707b983          	ld	s3,112(a5) # 1070 <BASE_ADDRESS-0x801fef90>
    8020230a:	0787ba03          	ld	s4,120(a5)
    8020230e:	0807ba83          	ld	s5,128(a5)
			   trapframe->a3, trapframe->a4, trapframe->a5 };
	if (id != SYS_write && id != SYS_read && id != SYS_sched_yield) {
    80202312:	fc17091b          	addiw	s2,a4,-63
    80202316:	4705                	li	a4,1
    80202318:	05277063          	bgeu	a4,s2,80202358 <syscall+0x74>
    8020231c:	07c00713          	li	a4,124
    80202320:	00e49e63          	bne	s1,a4,8020233c <syscall+0x58>
	yield();
    80202324:	00002097          	auipc	ra,0x2
    80202328:	7d0080e7          	jalr	2000(ra) # 80204af4 <yield>
		break;
	default:
		ret = -1;
		errorf("unknown syscall %d", id);
	}
	curr_thread()->trapframe->a0 = ret;
    8020232c:	00002097          	auipc	ra,0x2
    80202330:	0ca080e7          	jalr	202(ra) # 802043f6 <curr_thread>
    80202334:	711c                	ld	a5,32(a0)
    80202336:	0607b823          	sd	zero,112(a5)
	if (id != SYS_write && id != SYS_read && id != SYS_sched_yield) {
    8020233a:	aa1d                	j	80202470 <syscall+0x18c>
		debugf("syscall %d args = [%x, %x, %x, %x, %x, %x]", id,
    8020233c:	0987b883          	ld	a7,152(a5)
    80202340:	0907b803          	ld	a6,144(a5)
    80202344:	67dc                	ld	a5,136(a5)
    80202346:	8756                	mv	a4,s5
    80202348:	86d2                	mv	a3,s4
    8020234a:	864e                	mv	a2,s3
    8020234c:	85a6                	mv	a1,s1
    8020234e:	4501                	li	a0,0
    80202350:	ffffe097          	auipc	ra,0xffffe
    80202354:	f5c080e7          	jalr	-164(ra) # 802002ac <dummy>
	switch (id) {
    80202358:	0dd00793          	li	a5,221
    8020235c:	24f48263          	beq	s1,a5,802025a0 <syscall+0x2bc>
    80202360:	0497d263          	bge	a5,s1,802023a4 <syscall+0xc0>
    80202364:	1d300793          	li	a5,467
    80202368:	2af48363          	beq	s1,a5,8020260e <syscall+0x32a>
    8020236c:	1297dd63          	bge	a5,s1,802024a6 <syscall+0x1c2>
    80202370:	1d600793          	li	a5,470
    80202374:	2af48d63          	beq	s1,a5,8020262e <syscall+0x34a>
    80202378:	1a97d463          	bge	a5,s1,80202520 <syscall+0x23c>
    8020237c:	1d800793          	li	a5,472
    80202380:	2cf48563          	beq	s1,a5,8020264a <syscall+0x366>
    80202384:	2af4cd63          	blt	s1,a5,8020263e <syscall+0x35a>
    80202388:	1d900793          	li	a5,473
    8020238c:	04f49463          	bne	s1,a5,802023d4 <syscall+0xf0>
		ret = sys_condvar_wait(args[0], args[1]);
    80202390:	000a059b          	sext.w	a1,s4
    80202394:	0009851b          	sext.w	a0,s3
    80202398:	00000097          	auipc	ra,0x0
    8020239c:	df0080e7          	jalr	-528(ra) # 80202188 <sys_condvar_wait>
    802023a0:	89aa                	mv	s3,a0
		break;
    802023a2:	a86d                	j	8020245c <syscall+0x178>
	switch (id) {
    802023a4:	05d00793          	li	a5,93
    802023a8:	1cf48163          	beq	s1,a5,8020256a <syscall+0x286>
    802023ac:	0497df63          	bge	a5,s1,8020240a <syscall+0x126>
    802023b0:	0ac00793          	li	a5,172
    802023b4:	1cf48163          	beq	s1,a5,80202576 <syscall+0x292>
    802023b8:	0c97d563          	bge	a5,s1,80202482 <syscall+0x19e>
    802023bc:	0b200793          	li	a5,178
    802023c0:	20f48963          	beq	s1,a5,802025d2 <syscall+0x2ee>
    802023c4:	0dc00793          	li	a5,220
    802023c8:	1cf48563          	beq	s1,a5,80202592 <syscall+0x2ae>
    802023cc:	0ad00793          	li	a5,173
    802023d0:	1af48a63          	beq	s1,a5,80202584 <syscall+0x2a0>
		errorf("unknown syscall %d", id);
    802023d4:	00002097          	auipc	ra,0x2
    802023d8:	fca080e7          	jalr	-54(ra) # 8020439e <procid>
    802023dc:	89aa                	mv	s3,a0
    802023de:	00002097          	auipc	ra,0x2
    802023e2:	fda080e7          	jalr	-38(ra) # 802043b8 <threadid>
    802023e6:	87a6                	mv	a5,s1
    802023e8:	872a                	mv	a4,a0
    802023ea:	86ce                	mv	a3,s3
    802023ec:	00006617          	auipc	a2,0x6
    802023f0:	ca460613          	addi	a2,a2,-860 # 80208090 <e_text+0x90>
    802023f4:	45fd                	li	a1,31
    802023f6:	00006517          	auipc	a0,0x6
    802023fa:	27250513          	addi	a0,a0,626 # 80208668 <e_text+0x668>
    802023fe:	00001097          	auipc	ra,0x1
    80202402:	cc8080e7          	jalr	-824(ra) # 802030c6 <printf>
		ret = -1;
    80202406:	59fd                	li	s3,-1
    80202408:	a0f5                	j	802024f4 <syscall+0x210>
	switch (id) {
    8020240a:	03b00793          	li	a5,59
    8020240e:	1af48c63          	beq	s1,a5,802025c6 <syscall+0x2e2>
    80202412:	0297c363          	blt	a5,s1,80202438 <syscall+0x154>
    80202416:	03800793          	li	a5,56
    8020241a:	12f48e63          	beq	s1,a5,80202556 <syscall+0x272>
    8020241e:	03900793          	li	a5,57
    80202422:	faf499e3          	bne	s1,a5,802023d4 <syscall+0xf0>
		ret = sys_close(args[0]);
    80202426:	0009851b          	sext.w	a0,s3
    8020242a:	fffff097          	auipc	ra,0xfffff
    8020242e:	1d2080e7          	jalr	466(ra) # 802015fc <sys_close>
    80202432:	0005099b          	sext.w	s3,a0
		break;
    80202436:	a01d                	j	8020245c <syscall+0x178>
	switch (id) {
    80202438:	03f00793          	li	a5,63
    8020243c:	10f48263          	beq	s1,a5,80202540 <syscall+0x25c>
    80202440:	04000793          	li	a5,64
    80202444:	f8f498e3          	bne	s1,a5,802023d4 <syscall+0xf0>
		ret = sys_write(args[0], args[1], args[2]);
    80202448:	8656                	mv	a2,s5
    8020244a:	85d2                	mv	a1,s4
    8020244c:	0009851b          	sext.w	a0,s3
    80202450:	fffff097          	auipc	ra,0xfffff
    80202454:	c82080e7          	jalr	-894(ra) # 802010d2 <sys_write>
    80202458:	0005099b          	sext.w	s3,a0
	curr_thread()->trapframe->a0 = ret;
    8020245c:	00002097          	auipc	ra,0x2
    80202460:	f9a080e7          	jalr	-102(ra) # 802043f6 <curr_thread>
    80202464:	711c                	ld	a5,32(a0)
    80202466:	0737b823          	sd	s3,112(a5)
	if (id != SYS_write && id != SYS_read && id != SYS_sched_yield) {
    8020246a:	4785                	li	a5,1
    8020246c:	0b27e263          	bltu	a5,s2,80202510 <syscall+0x22c>
		debugf("syscall %d ret %d", id, ret);
	}
}
    80202470:	70e2                	ld	ra,56(sp)
    80202472:	7442                	ld	s0,48(sp)
    80202474:	74a2                	ld	s1,40(sp)
    80202476:	7902                	ld	s2,32(sp)
    80202478:	69e2                	ld	s3,24(sp)
    8020247a:	6a42                	ld	s4,16(sp)
    8020247c:	6aa2                	ld	s5,8(sp)
    8020247e:	6121                	addi	sp,sp,64
    80202480:	8082                	ret
	switch (id) {
    80202482:	07c00793          	li	a5,124
    80202486:	e8f48fe3          	beq	s1,a5,80202324 <syscall+0x40>
    8020248a:	0a900793          	li	a5,169
    8020248e:	f4f493e3          	bne	s1,a5,802023d4 <syscall+0xf0>
		ret = sys_gettimeofday(args[0], args[1]);
    80202492:	000a059b          	sext.w	a1,s4
    80202496:	854e                	mv	a0,s3
    80202498:	fffff097          	auipc	ra,0xfffff
    8020249c:	e7c080e7          	jalr	-388(ra) # 80201314 <sys_gettimeofday>
    802024a0:	0005099b          	sext.w	s3,a0
		break;
    802024a4:	bf65                	j	8020245c <syscall+0x178>
	switch (id) {
    802024a6:	1ce00793          	li	a5,462
    802024aa:	12f48a63          	beq	s1,a5,802025de <syscall+0x2fa>
    802024ae:	0297d463          	bge	a5,s1,802024d6 <syscall+0x1f2>
    802024b2:	1d000793          	li	a5,464
    802024b6:	14f48463          	beq	s1,a5,802025fe <syscall+0x31a>
    802024ba:	12f4ca63          	blt	s1,a5,802025ee <syscall+0x30a>
    802024be:	1d200793          	li	a5,466
    802024c2:	f0f499e3          	bne	s1,a5,802023d4 <syscall+0xf0>
		ret = sys_mutex_unlock(args[0]);
    802024c6:	0009851b          	sext.w	a0,s3
    802024ca:	fffff097          	auipc	ra,0xfffff
    802024ce:	784080e7          	jalr	1924(ra) # 80201c4e <sys_mutex_unlock>
    802024d2:	89aa                	mv	s3,a0
		break;
    802024d4:	b761                	j	8020245c <syscall+0x178>
	switch (id) {
    802024d6:	10400793          	li	a5,260
    802024da:	0cf48c63          	beq	s1,a5,802025b2 <syscall+0x2ce>
    802024de:	1cc00793          	li	a5,460
    802024e2:	eef499e3          	bne	s1,a5,802023d4 <syscall+0xf0>
		ret = sys_thread_create(args[0], args[1]);
    802024e6:	85d2                	mv	a1,s4
    802024e8:	854e                	mv	a0,s3
    802024ea:	fffff097          	auipc	ra,0xfffff
    802024ee:	18c080e7          	jalr	396(ra) # 80201676 <sys_thread_create>
    802024f2:	89aa                	mv	s3,a0
	curr_thread()->trapframe->a0 = ret;
    802024f4:	00002097          	auipc	ra,0x2
    802024f8:	f02080e7          	jalr	-254(ra) # 802043f6 <curr_thread>
    802024fc:	711c                	ld	a5,32(a0)
    802024fe:	0737b823          	sd	s3,112(a5)
	if (id != SYS_write && id != SYS_read && id != SYS_sched_yield) {
    80202502:	4785                	li	a5,1
    80202504:	f727f6e3          	bgeu	a5,s2,80202470 <syscall+0x18c>
    80202508:	07c00793          	li	a5,124
    8020250c:	f6f482e3          	beq	s1,a5,80202470 <syscall+0x18c>
		debugf("syscall %d ret %d", id, ret);
    80202510:	864e                	mv	a2,s3
    80202512:	85a6                	mv	a1,s1
    80202514:	4501                	li	a0,0
    80202516:	ffffe097          	auipc	ra,0xffffe
    8020251a:	d96080e7          	jalr	-618(ra) # 802002ac <dummy>
}
    8020251e:	bf89                	j	80202470 <syscall+0x18c>
	switch (id) {
    80202520:	1d400793          	li	a5,468
    80202524:	0ef48d63          	beq	s1,a5,8020261e <syscall+0x33a>
    80202528:	1d500793          	li	a5,469
    8020252c:	eaf494e3          	bne	s1,a5,802023d4 <syscall+0xf0>
		ret = sys_enable_deadlock_detect(args[0]);
    80202530:	0009851b          	sext.w	a0,s3
    80202534:	00000097          	auipc	ra,0x0
    80202538:	d4e080e7          	jalr	-690(ra) # 80202282 <sys_enable_deadlock_detect>
    8020253c:	89aa                	mv	s3,a0
		break;
    8020253e:	bf39                	j	8020245c <syscall+0x178>
		ret = sys_read(args[0], args[1], args[2]);
    80202540:	8656                	mv	a2,s5
    80202542:	85d2                	mv	a1,s4
    80202544:	0009851b          	sext.w	a0,s3
    80202548:	fffff097          	auipc	ra,0xfffff
    8020254c:	c96080e7          	jalr	-874(ra) # 802011de <sys_read>
    80202550:	0005099b          	sext.w	s3,a0
		break;
    80202554:	b721                	j	8020245c <syscall+0x178>
		ret = sys_openat(args[0], args[1], args[2]);
    80202556:	8656                	mv	a2,s5
    80202558:	85d2                	mv	a1,s4
    8020255a:	854e                	mv	a0,s3
    8020255c:	fffff097          	auipc	ra,0xfffff
    80202560:	05a080e7          	jalr	90(ra) # 802015b6 <sys_openat>
    80202564:	0005099b          	sext.w	s3,a0
		break;
    80202568:	bdd5                	j	8020245c <syscall+0x178>
	exit(code);
    8020256a:	0009851b          	sext.w	a0,s3
    8020256e:	00003097          	auipc	ra,0x3
    80202572:	c36080e7          	jalr	-970(ra) # 802051a4 <exit>
		ret = sys_getpid();
    80202576:	fffff097          	auipc	ra,0xfffff
    8020257a:	e06080e7          	jalr	-506(ra) # 8020137c <sys_getpid>
    8020257e:	0005099b          	sext.w	s3,a0
		break;
    80202582:	bde9                	j	8020245c <syscall+0x178>
		ret = sys_getppid();
    80202584:	fffff097          	auipc	ra,0xfffff
    80202588:	e12080e7          	jalr	-494(ra) # 80201396 <sys_getppid>
    8020258c:	0005099b          	sext.w	s3,a0
		break;
    80202590:	b5f1                	j	8020245c <syscall+0x178>
		ret = sys_clone();
    80202592:	fffff097          	auipc	ra,0xfffff
    80202596:	e24080e7          	jalr	-476(ra) # 802013b6 <sys_clone>
    8020259a:	0005099b          	sext.w	s3,a0
		break;
    8020259e:	bd7d                	j	8020245c <syscall+0x178>
		ret = sys_exec(args[0], args[1]);
    802025a0:	85d2                	mv	a1,s4
    802025a2:	854e                	mv	a0,s3
    802025a4:	fffff097          	auipc	ra,0xfffff
    802025a8:	e34080e7          	jalr	-460(ra) # 802013d8 <sys_exec>
    802025ac:	0005099b          	sext.w	s3,a0
		break;
    802025b0:	b575                	j	8020245c <syscall+0x178>
		ret = sys_wait(args[0], args[1]);
    802025b2:	85d2                	mv	a1,s4
    802025b4:	0009851b          	sext.w	a0,s3
    802025b8:	fffff097          	auipc	ra,0xfffff
    802025bc:	ef2080e7          	jalr	-270(ra) # 802014aa <sys_wait>
    802025c0:	0005099b          	sext.w	s3,a0
		break;
    802025c4:	bd61                	j	8020245c <syscall+0x178>
		ret = sys_pipe(args[0]);
    802025c6:	854e                	mv	a0,s3
    802025c8:	fffff097          	auipc	ra,0xfffff
    802025cc:	f1e080e7          	jalr	-226(ra) # 802014e6 <sys_pipe>
    802025d0:	bf19                	j	802024e6 <syscall+0x202>
		ret = sys_gettid();
    802025d2:	fffff097          	auipc	ra,0xfffff
    802025d6:	13e080e7          	jalr	318(ra) # 80201710 <sys_gettid>
    802025da:	89aa                	mv	s3,a0
		break;
    802025dc:	b541                	j	8020245c <syscall+0x178>
		ret = sys_waittid(args[0]);
    802025de:	0009851b          	sext.w	a0,s3
    802025e2:	fffff097          	auipc	ra,0xfffff
    802025e6:	148080e7          	jalr	328(ra) # 8020172a <sys_waittid>
    802025ea:	89aa                	mv	s3,a0
		break;
    802025ec:	bd85                	j	8020245c <syscall+0x178>
		ret = sys_mutex_create(args[0]);
    802025ee:	0009851b          	sext.w	a0,s3
    802025f2:	fffff097          	auipc	ra,0xfffff
    802025f6:	408080e7          	jalr	1032(ra) # 802019fa <sys_mutex_create>
    802025fa:	89aa                	mv	s3,a0
		break;
    802025fc:	b585                	j	8020245c <syscall+0x178>
		ret = sys_mutex_lock(args[0]);
    802025fe:	0009851b          	sext.w	a0,s3
    80202602:	fffff097          	auipc	ra,0xfffff
    80202606:	490080e7          	jalr	1168(ra) # 80201a92 <sys_mutex_lock>
    8020260a:	89aa                	mv	s3,a0
		break;
    8020260c:	bd81                	j	8020245c <syscall+0x178>
		ret = sys_semaphore_create(args[0]);
    8020260e:	0009851b          	sext.w	a0,s3
    80202612:	fffff097          	auipc	ra,0xfffff
    80202616:	722080e7          	jalr	1826(ra) # 80201d34 <sys_semaphore_create>
    8020261a:	89aa                	mv	s3,a0
		break;
    8020261c:	b581                	j	8020245c <syscall+0x178>
		ret = sys_semaphore_up(args[0]);
    8020261e:	0009851b          	sext.w	a0,s3
    80202622:	fffff097          	auipc	ra,0xfffff
    80202626:	7b0080e7          	jalr	1968(ra) # 80201dd2 <sys_semaphore_up>
    8020262a:	89aa                	mv	s3,a0
		break;
    8020262c:	bd05                	j	8020245c <syscall+0x178>
		ret = sys_semaphore_down(args[0]);
    8020262e:	0009851b          	sext.w	a0,s3
    80202632:	00000097          	auipc	ra,0x0
    80202636:	886080e7          	jalr	-1914(ra) # 80201eb8 <sys_semaphore_down>
    8020263a:	89aa                	mv	s3,a0
		break;
    8020263c:	b505                	j	8020245c <syscall+0x178>
		ret = sys_condvar_create();
    8020263e:	00000097          	auipc	ra,0x0
    80202642:	a3a080e7          	jalr	-1478(ra) # 80202078 <sys_condvar_create>
    80202646:	89aa                	mv	s3,a0
		break;
    80202648:	bd11                	j	8020245c <syscall+0x178>
		ret = sys_condvar_signal(args[0]);
    8020264a:	0009851b          	sext.w	a0,s3
    8020264e:	00000097          	auipc	ra,0x0
    80202652:	aae080e7          	jalr	-1362(ra) # 802020fc <sys_condvar_signal>
    80202656:	89aa                	mv	s3,a0
		break;
    80202658:	b511                	j	8020245c <syscall+0x178>

000000008020265a <walk>:
//   30..38 -- 9 bits of level-2 index.
//   21..29 -- 9 bits of level-1 index.
//   12..20 -- 9 bits of level-0 index.
//    0..11 -- 12 bits of byte offset within the page.
pte_t *walk(pagetable_t pagetable, uint64 va, int alloc)
{
    8020265a:	7139                	addi	sp,sp,-64
    8020265c:	fc06                	sd	ra,56(sp)
    8020265e:	f822                	sd	s0,48(sp)
    80202660:	f426                	sd	s1,40(sp)
    80202662:	f04a                	sd	s2,32(sp)
    80202664:	ec4e                	sd	s3,24(sp)
    80202666:	e852                	sd	s4,16(sp)
    80202668:	e456                	sd	s5,8(sp)
    8020266a:	e05a                	sd	s6,0(sp)
    8020266c:	0080                	addi	s0,sp,64
    8020266e:	84aa                	mv	s1,a0
    80202670:	89ae                	mv	s3,a1
    80202672:	8b32                	mv	s6,a2
	if (va >= MAXVA)
    80202674:	57fd                	li	a5,-1
    80202676:	83e9                	srli	a5,a5,0x1a
    80202678:	4a79                	li	s4,30
		panic("walk");

	for (int level = 2; level > 0; level--) {
    8020267a:	4ab1                	li	s5,12
	if (va >= MAXVA)
    8020267c:	06b7fc63          	bgeu	a5,a1,802026f4 <walk+0x9a>
		panic("walk");
    80202680:	00002097          	auipc	ra,0x2
    80202684:	d1e080e7          	jalr	-738(ra) # 8020439e <procid>
    80202688:	84aa                	mv	s1,a0
    8020268a:	00002097          	auipc	ra,0x2
    8020268e:	d2e080e7          	jalr	-722(ra) # 802043b8 <threadid>
    80202692:	03900813          	li	a6,57
    80202696:	00006797          	auipc	a5,0x6
    8020269a:	ffa78793          	addi	a5,a5,-6 # 80208690 <e_text+0x690>
    8020269e:	872a                	mv	a4,a0
    802026a0:	86a6                	mv	a3,s1
    802026a2:	00006617          	auipc	a2,0x6
    802026a6:	96e60613          	addi	a2,a2,-1682 # 80208010 <e_text+0x10>
    802026aa:	45fd                	li	a1,31
    802026ac:	00006517          	auipc	a0,0x6
    802026b0:	fec50513          	addi	a0,a0,-20 # 80208698 <e_text+0x698>
    802026b4:	00001097          	auipc	ra,0x1
    802026b8:	a12080e7          	jalr	-1518(ra) # 802030c6 <printf>
    802026bc:	00001097          	auipc	ra,0x1
    802026c0:	c22080e7          	jalr	-990(ra) # 802032de <shutdown>
		pte_t *pte = &pagetable[PX(level, va)];
		if (*pte & PTE_V) {
			pagetable = (pagetable_t)PTE2PA(*pte);
		} else {
			if (!alloc || (pagetable = (pde_t *)kalloc()) == 0)
    802026c4:	060b0663          	beqz	s6,80202730 <walk+0xd6>
    802026c8:	00002097          	auipc	ra,0x2
    802026cc:	c10080e7          	jalr	-1008(ra) # 802042d8 <kalloc>
    802026d0:	84aa                	mv	s1,a0
    802026d2:	c529                	beqz	a0,8020271c <walk+0xc2>
				return 0;
			memset(pagetable, 0, PGSIZE);
    802026d4:	6605                	lui	a2,0x1
    802026d6:	4581                	li	a1,0
    802026d8:	ffffe097          	auipc	ra,0xffffe
    802026dc:	a00080e7          	jalr	-1536(ra) # 802000d8 <memset>
			*pte = PA2PTE(pagetable) | PTE_V;
    802026e0:	00c4d793          	srli	a5,s1,0xc
    802026e4:	07aa                	slli	a5,a5,0xa
    802026e6:	0017e793          	ori	a5,a5,1
    802026ea:	00f93023          	sd	a5,0(s2)
    802026ee:	3a5d                	addiw	s4,s4,-9
	for (int level = 2; level > 0; level--) {
    802026f0:	035a0063          	beq	s4,s5,80202710 <walk+0xb6>
		pte_t *pte = &pagetable[PX(level, va)];
    802026f4:	0149d933          	srl	s2,s3,s4
    802026f8:	1ff97913          	andi	s2,s2,511
    802026fc:	090e                	slli	s2,s2,0x3
    802026fe:	9926                	add	s2,s2,s1
		if (*pte & PTE_V) {
    80202700:	00093483          	ld	s1,0(s2)
    80202704:	0014f793          	andi	a5,s1,1
    80202708:	dfd5                	beqz	a5,802026c4 <walk+0x6a>
			pagetable = (pagetable_t)PTE2PA(*pte);
    8020270a:	80a9                	srli	s1,s1,0xa
    8020270c:	04b2                	slli	s1,s1,0xc
    8020270e:	b7c5                	j	802026ee <walk+0x94>
		}
	}
	return &pagetable[PX(0, va)];
    80202710:	00c9d513          	srli	a0,s3,0xc
    80202714:	1ff57513          	andi	a0,a0,511
    80202718:	050e                	slli	a0,a0,0x3
    8020271a:	9526                	add	a0,a0,s1
}
    8020271c:	70e2                	ld	ra,56(sp)
    8020271e:	7442                	ld	s0,48(sp)
    80202720:	74a2                	ld	s1,40(sp)
    80202722:	7902                	ld	s2,32(sp)
    80202724:	69e2                	ld	s3,24(sp)
    80202726:	6a42                	ld	s4,16(sp)
    80202728:	6aa2                	ld	s5,8(sp)
    8020272a:	6b02                	ld	s6,0(sp)
    8020272c:	6121                	addi	sp,sp,64
    8020272e:	8082                	ret
				return 0;
    80202730:	4501                	li	a0,0
    80202732:	b7ed                	j	8020271c <walk+0xc2>

0000000080202734 <walkaddr>:
uint64 walkaddr(pagetable_t pagetable, uint64 va)
{
	pte_t *pte;
	uint64 pa;

	if (va >= MAXVA)
    80202734:	57fd                	li	a5,-1
    80202736:	83e9                	srli	a5,a5,0x1a
    80202738:	00b7f463          	bgeu	a5,a1,80202740 <walkaddr+0xc>
		return 0;
    8020273c:	4501                	li	a0,0
		return 0;
	if ((*pte & PTE_U) == 0)
		return 0;
	pa = PTE2PA(*pte);
	return pa;
}
    8020273e:	8082                	ret
{
    80202740:	1141                	addi	sp,sp,-16
    80202742:	e406                	sd	ra,8(sp)
    80202744:	e022                	sd	s0,0(sp)
    80202746:	0800                	addi	s0,sp,16
	pte = walk(pagetable, va, 0);
    80202748:	4601                	li	a2,0
    8020274a:	00000097          	auipc	ra,0x0
    8020274e:	f10080e7          	jalr	-240(ra) # 8020265a <walk>
	if (pte == 0)
    80202752:	c105                	beqz	a0,80202772 <walkaddr+0x3e>
	if ((*pte & PTE_V) == 0)
    80202754:	611c                	ld	a5,0(a0)
	if ((*pte & PTE_U) == 0)
    80202756:	0117f693          	andi	a3,a5,17
    8020275a:	4745                	li	a4,17
		return 0;
    8020275c:	4501                	li	a0,0
	if ((*pte & PTE_U) == 0)
    8020275e:	00e68663          	beq	a3,a4,8020276a <walkaddr+0x36>
}
    80202762:	60a2                	ld	ra,8(sp)
    80202764:	6402                	ld	s0,0(sp)
    80202766:	0141                	addi	sp,sp,16
    80202768:	8082                	ret
	pa = PTE2PA(*pte);
    8020276a:	00a7d513          	srli	a0,a5,0xa
    8020276e:	0532                	slli	a0,a0,0xc
	return pa;
    80202770:	bfcd                	j	80202762 <walkaddr+0x2e>
		return 0;
    80202772:	4501                	li	a0,0
    80202774:	b7fd                	j	80202762 <walkaddr+0x2e>

0000000080202776 <useraddr>:

// Look up a virtual address, return the physical address,
uint64 useraddr(pagetable_t pagetable, uint64 va)
{
    80202776:	1101                	addi	sp,sp,-32
    80202778:	ec06                	sd	ra,24(sp)
    8020277a:	e822                	sd	s0,16(sp)
    8020277c:	e426                	sd	s1,8(sp)
    8020277e:	1000                	addi	s0,sp,32
    80202780:	84ae                	mv	s1,a1
	uint64 page = walkaddr(pagetable, va);
    80202782:	00000097          	auipc	ra,0x0
    80202786:	fb2080e7          	jalr	-78(ra) # 80202734 <walkaddr>
	if (page == 0)
    8020278a:	c509                	beqz	a0,80202794 <useraddr+0x1e>
		return 0;
	return page | (va & 0xFFFULL);
    8020278c:	03449593          	slli	a1,s1,0x34
    80202790:	91d1                	srli	a1,a1,0x34
    80202792:	8d4d                	or	a0,a0,a1
}
    80202794:	60e2                	ld	ra,24(sp)
    80202796:	6442                	ld	s0,16(sp)
    80202798:	64a2                	ld	s1,8(sp)
    8020279a:	6105                	addi	sp,sp,32
    8020279c:	8082                	ret

000000008020279e <mappages>:
// Create PTEs for virtual addresses starting at va that refer to
// physical addresses starting at pa. va and size might not
// be page-aligned. Returns 0 on success, -1 if walk() couldn't
// allocate a needed page-table page.
int mappages(pagetable_t pagetable, uint64 va, uint64 size, uint64 pa, int perm)
{
    8020279e:	715d                	addi	sp,sp,-80
    802027a0:	e486                	sd	ra,72(sp)
    802027a2:	e0a2                	sd	s0,64(sp)
    802027a4:	fc26                	sd	s1,56(sp)
    802027a6:	f84a                	sd	s2,48(sp)
    802027a8:	f44e                	sd	s3,40(sp)
    802027aa:	f052                	sd	s4,32(sp)
    802027ac:	ec56                	sd	s5,24(sp)
    802027ae:	e85a                	sd	s6,16(sp)
    802027b0:	e45e                	sd	s7,8(sp)
    802027b2:	0880                	addi	s0,sp,80
    802027b4:	8aaa                	mv	s5,a0
    802027b6:	8b3a                	mv	s6,a4
	uint64 a, last;
	pte_t *pte;

	a = PGROUNDDOWN(va);
    802027b8:	79fd                	lui	s3,0xfffff
    802027ba:	0135fa33          	and	s4,a1,s3
	last = PGROUNDDOWN(va + size - 1);
    802027be:	167d                	addi	a2,a2,-1
    802027c0:	962e                	add	a2,a2,a1
    802027c2:	013679b3          	and	s3,a2,s3
	a = PGROUNDDOWN(va);
    802027c6:	8952                	mv	s2,s4
    802027c8:	41468a33          	sub	s4,a3,s4
			return -1;
		}
		*pte = PA2PTE(pa) | perm | PTE_V;
		if (a == last)
			break;
		a += PGSIZE;
    802027cc:	6b85                	lui	s7,0x1
    802027ce:	012a04b3          	add	s1,s4,s2
		if ((pte = walk(pagetable, a, 1)) == 0) {
    802027d2:	4605                	li	a2,1
    802027d4:	85ca                	mv	a1,s2
    802027d6:	8556                	mv	a0,s5
    802027d8:	00000097          	auipc	ra,0x0
    802027dc:	e82080e7          	jalr	-382(ra) # 8020265a <walk>
    802027e0:	cd19                	beqz	a0,802027fe <mappages+0x60>
		if (*pte & PTE_V) {
    802027e2:	611c                	ld	a5,0(a0)
    802027e4:	8b85                	andi	a5,a5,1
    802027e6:	e3ad                	bnez	a5,80202848 <mappages+0xaa>
		*pte = PA2PTE(pa) | perm | PTE_V;
    802027e8:	80b1                	srli	s1,s1,0xc
    802027ea:	04aa                	slli	s1,s1,0xa
    802027ec:	0164e4b3          	or	s1,s1,s6
    802027f0:	0014e493          	ori	s1,s1,1
    802027f4:	e104                	sd	s1,0(a0)
		if (a == last)
    802027f6:	09390363          	beq	s2,s3,8020287c <mappages+0xde>
		a += PGSIZE;
    802027fa:	995e                	add	s2,s2,s7
		if ((pte = walk(pagetable, a, 1)) == 0) {
    802027fc:	bfc9                	j	802027ce <mappages+0x30>
			errorf("pte invalid, va = %p", a);
    802027fe:	00002097          	auipc	ra,0x2
    80202802:	ba0080e7          	jalr	-1120(ra) # 8020439e <procid>
    80202806:	84aa                	mv	s1,a0
    80202808:	00002097          	auipc	ra,0x2
    8020280c:	bb0080e7          	jalr	-1104(ra) # 802043b8 <threadid>
    80202810:	87ca                	mv	a5,s2
    80202812:	872a                	mv	a4,a0
    80202814:	86a6                	mv	a3,s1
    80202816:	00006617          	auipc	a2,0x6
    8020281a:	87a60613          	addi	a2,a2,-1926 # 80208090 <e_text+0x90>
    8020281e:	45fd                	li	a1,31
    80202820:	00006517          	auipc	a0,0x6
    80202824:	ea050513          	addi	a0,a0,-352 # 802086c0 <e_text+0x6c0>
    80202828:	00001097          	auipc	ra,0x1
    8020282c:	89e080e7          	jalr	-1890(ra) # 802030c6 <printf>
			return -1;
    80202830:	557d                	li	a0,-1
		pa += PGSIZE;
	}
	return 0;
}
    80202832:	60a6                	ld	ra,72(sp)
    80202834:	6406                	ld	s0,64(sp)
    80202836:	74e2                	ld	s1,56(sp)
    80202838:	7942                	ld	s2,48(sp)
    8020283a:	79a2                	ld	s3,40(sp)
    8020283c:	7a02                	ld	s4,32(sp)
    8020283e:	6ae2                	ld	s5,24(sp)
    80202840:	6b42                	ld	s6,16(sp)
    80202842:	6ba2                	ld	s7,8(sp)
    80202844:	6161                	addi	sp,sp,80
    80202846:	8082                	ret
			errorf("remap");
    80202848:	00002097          	auipc	ra,0x2
    8020284c:	b56080e7          	jalr	-1194(ra) # 8020439e <procid>
    80202850:	84aa                	mv	s1,a0
    80202852:	00002097          	auipc	ra,0x2
    80202856:	b66080e7          	jalr	-1178(ra) # 802043b8 <threadid>
    8020285a:	872a                	mv	a4,a0
    8020285c:	86a6                	mv	a3,s1
    8020285e:	00006617          	auipc	a2,0x6
    80202862:	83260613          	addi	a2,a2,-1998 # 80208090 <e_text+0x90>
    80202866:	45fd                	li	a1,31
    80202868:	00006517          	auipc	a0,0x6
    8020286c:	e8850513          	addi	a0,a0,-376 # 802086f0 <e_text+0x6f0>
    80202870:	00001097          	auipc	ra,0x1
    80202874:	856080e7          	jalr	-1962(ra) # 802030c6 <printf>
			return -1;
    80202878:	557d                	li	a0,-1
    8020287a:	bf65                	j	80202832 <mappages+0x94>
	return 0;
    8020287c:	4501                	li	a0,0
    8020287e:	bf55                	j	80202832 <mappages+0x94>

0000000080202880 <kvmmap>:
{
    80202880:	1101                	addi	sp,sp,-32
    80202882:	ec06                	sd	ra,24(sp)
    80202884:	e822                	sd	s0,16(sp)
    80202886:	e426                	sd	s1,8(sp)
    80202888:	1000                	addi	s0,sp,32
    8020288a:	87b6                	mv	a5,a3
	if (mappages(kpgtbl, va, sz, pa, perm) != 0)
    8020288c:	86b2                	mv	a3,a2
    8020288e:	863e                	mv	a2,a5
    80202890:	00000097          	auipc	ra,0x0
    80202894:	f0e080e7          	jalr	-242(ra) # 8020279e <mappages>
    80202898:	e511                	bnez	a0,802028a4 <kvmmap+0x24>
}
    8020289a:	60e2                	ld	ra,24(sp)
    8020289c:	6442                	ld	s0,16(sp)
    8020289e:	64a2                	ld	s1,8(sp)
    802028a0:	6105                	addi	sp,sp,32
    802028a2:	8082                	ret
		panic("kvmmap");
    802028a4:	00002097          	auipc	ra,0x2
    802028a8:	afa080e7          	jalr	-1286(ra) # 8020439e <procid>
    802028ac:	84aa                	mv	s1,a0
    802028ae:	00002097          	auipc	ra,0x2
    802028b2:	b0a080e7          	jalr	-1270(ra) # 802043b8 <threadid>
    802028b6:	06e00813          	li	a6,110
    802028ba:	00006797          	auipc	a5,0x6
    802028be:	dd678793          	addi	a5,a5,-554 # 80208690 <e_text+0x690>
    802028c2:	872a                	mv	a4,a0
    802028c4:	86a6                	mv	a3,s1
    802028c6:	00005617          	auipc	a2,0x5
    802028ca:	74a60613          	addi	a2,a2,1866 # 80208010 <e_text+0x10>
    802028ce:	45fd                	li	a1,31
    802028d0:	00006517          	auipc	a0,0x6
    802028d4:	e4050513          	addi	a0,a0,-448 # 80208710 <e_text+0x710>
    802028d8:	00000097          	auipc	ra,0x0
    802028dc:	7ee080e7          	jalr	2030(ra) # 802030c6 <printf>
    802028e0:	00001097          	auipc	ra,0x1
    802028e4:	9fe080e7          	jalr	-1538(ra) # 802032de <shutdown>

00000000802028e8 <kvmmake>:
{
    802028e8:	1101                	addi	sp,sp,-32
    802028ea:	ec06                	sd	ra,24(sp)
    802028ec:	e822                	sd	s0,16(sp)
    802028ee:	e426                	sd	s1,8(sp)
    802028f0:	e04a                	sd	s2,0(sp)
    802028f2:	1000                	addi	s0,sp,32
	kpgtbl = (pagetable_t)kalloc();
    802028f4:	00002097          	auipc	ra,0x2
    802028f8:	9e4080e7          	jalr	-1564(ra) # 802042d8 <kalloc>
    802028fc:	84aa                	mv	s1,a0
	memset(kpgtbl, 0, PGSIZE);
    802028fe:	6605                	lui	a2,0x1
    80202900:	4581                	li	a1,0
    80202902:	ffffd097          	auipc	ra,0xffffd
    80202906:	7d6080e7          	jalr	2006(ra) # 802000d8 <memset>
	kvmmap(kpgtbl, VIRTIO0, VIRTIO0, PGSIZE, PTE_R | PTE_W);
    8020290a:	4719                	li	a4,6
    8020290c:	6685                	lui	a3,0x1
    8020290e:	10001637          	lui	a2,0x10001
    80202912:	100015b7          	lui	a1,0x10001
    80202916:	8526                	mv	a0,s1
    80202918:	00000097          	auipc	ra,0x0
    8020291c:	f68080e7          	jalr	-152(ra) # 80202880 <kvmmap>
	kvmmap(kpgtbl, PLIC, PLIC, 0x400000, PTE_R | PTE_W);
    80202920:	4719                	li	a4,6
    80202922:	004006b7          	lui	a3,0x400
    80202926:	0c000637          	lui	a2,0xc000
    8020292a:	0c0005b7          	lui	a1,0xc000
    8020292e:	8526                	mv	a0,s1
    80202930:	00000097          	auipc	ra,0x0
    80202934:	f50080e7          	jalr	-176(ra) # 80202880 <kvmmap>
	kvmmap(kpgtbl, KERNBASE, KERNBASE, (uint64)e_text - KERNBASE,
    80202938:	00005917          	auipc	s2,0x5
    8020293c:	6c890913          	addi	s2,s2,1736 # 80208000 <e_text>
    80202940:	4729                	li	a4,10
    80202942:	bff00693          	li	a3,-1025
    80202946:	06d6                	slli	a3,a3,0x15
    80202948:	96ca                	add	a3,a3,s2
    8020294a:	40100613          	li	a2,1025
    8020294e:	0656                	slli	a2,a2,0x15
    80202950:	85b2                	mv	a1,a2
    80202952:	8526                	mv	a0,s1
    80202954:	00000097          	auipc	ra,0x0
    80202958:	f2c080e7          	jalr	-212(ra) # 80202880 <kvmmap>
	kvmmap(kpgtbl, (uint64)e_text, (uint64)e_text, PHYSTOP - (uint64)e_text,
    8020295c:	4719                	li	a4,6
    8020295e:	46c5                	li	a3,17
    80202960:	06ee                	slli	a3,a3,0x1b
    80202962:	412686b3          	sub	a3,a3,s2
    80202966:	864a                	mv	a2,s2
    80202968:	85ca                	mv	a1,s2
    8020296a:	8526                	mv	a0,s1
    8020296c:	00000097          	auipc	ra,0x0
    80202970:	f14080e7          	jalr	-236(ra) # 80202880 <kvmmap>
	kvmmap(kpgtbl, TRAMPOLINE, (uint64)trampoline, PGSIZE, PTE_R | PTE_X);
    80202974:	4729                	li	a4,10
    80202976:	6685                	lui	a3,0x1
    80202978:	00004617          	auipc	a2,0x4
    8020297c:	68860613          	addi	a2,a2,1672 # 80207000 <trampoline>
    80202980:	040005b7          	lui	a1,0x4000
    80202984:	15fd                	addi	a1,a1,-1
    80202986:	05b2                	slli	a1,a1,0xc
    80202988:	8526                	mv	a0,s1
    8020298a:	00000097          	auipc	ra,0x0
    8020298e:	ef6080e7          	jalr	-266(ra) # 80202880 <kvmmap>
}
    80202992:	8526                	mv	a0,s1
    80202994:	60e2                	ld	ra,24(sp)
    80202996:	6442                	ld	s0,16(sp)
    80202998:	64a2                	ld	s1,8(sp)
    8020299a:	6902                	ld	s2,0(sp)
    8020299c:	6105                	addi	sp,sp,32
    8020299e:	8082                	ret

00000000802029a0 <kvm_init>:
{
    802029a0:	1141                	addi	sp,sp,-16
    802029a2:	e406                	sd	ra,8(sp)
    802029a4:	e022                	sd	s0,0(sp)
    802029a6:	0800                	addi	s0,sp,16
	kernel_pagetable = kvmmake();
    802029a8:	00000097          	auipc	ra,0x0
    802029ac:	f40080e7          	jalr	-192(ra) # 802028e8 <kvmmake>
    802029b0:	0111b797          	auipc	a5,0x111b
    802029b4:	94a7b023          	sd	a0,-1728(a5) # 8131d2f0 <kernel_pagetable>
	w_satp(MAKE_SATP(kernel_pagetable));
    802029b8:	8131                	srli	a0,a0,0xc
    802029ba:	57fd                	li	a5,-1
    802029bc:	17fe                	slli	a5,a5,0x3f
    802029be:	8d5d                	or	a0,a0,a5
	asm volatile("csrw satp, %0" : : "r"(x));
    802029c0:	18051073          	csrw	satp,a0

// flush the TLB.
static inline void sfence_vma()
{
	// the zero, zero means flush all TLB entries.
	asm volatile("sfence.vma zero, zero");
    802029c4:	12000073          	sfence.vma
	asm volatile("csrr %0, satp" : "=r"(x));
    802029c8:	180025f3          	csrr	a1,satp
	infof("enable pageing at %p", r_satp());
    802029cc:	4501                	li	a0,0
    802029ce:	ffffe097          	auipc	ra,0xffffe
    802029d2:	8de080e7          	jalr	-1826(ra) # 802002ac <dummy>
}
    802029d6:	60a2                	ld	ra,8(sp)
    802029d8:	6402                	ld	s0,0(sp)
    802029da:	0141                	addi	sp,sp,16
    802029dc:	8082                	ret

00000000802029de <uvmmap>:

int uvmmap(pagetable_t pagetable, uint64 va, uint64 npages, int perm)
{
	for (int i = 0; i < npages; ++i) {
    802029de:	c239                	beqz	a2,80202a24 <uvmmap+0x46>
{
    802029e0:	7139                	addi	sp,sp,-64
    802029e2:	fc06                	sd	ra,56(sp)
    802029e4:	f822                	sd	s0,48(sp)
    802029e6:	f426                	sd	s1,40(sp)
    802029e8:	f04a                	sd	s2,32(sp)
    802029ea:	ec4e                	sd	s3,24(sp)
    802029ec:	e852                	sd	s4,16(sp)
    802029ee:	e456                	sd	s5,8(sp)
    802029f0:	0080                	addi	s0,sp,64
    802029f2:	8a2a                	mv	s4,a0
    802029f4:	84ae                	mv	s1,a1
    802029f6:	89b2                	mv	s3,a2
    802029f8:	8ab6                	mv	s5,a3
	for (int i = 0; i < npages; ++i) {
    802029fa:	4901                	li	s2,0
		if (mappages(pagetable, va + i * 0x1000, 0x1000,
			     (uint64)kalloc(), perm)) {
    802029fc:	00002097          	auipc	ra,0x2
    80202a00:	8dc080e7          	jalr	-1828(ra) # 802042d8 <kalloc>
		if (mappages(pagetable, va + i * 0x1000, 0x1000,
    80202a04:	8756                	mv	a4,s5
    80202a06:	86aa                	mv	a3,a0
    80202a08:	6605                	lui	a2,0x1
    80202a0a:	85a6                	mv	a1,s1
    80202a0c:	8552                	mv	a0,s4
    80202a0e:	00000097          	auipc	ra,0x0
    80202a12:	d90080e7          	jalr	-624(ra) # 8020279e <mappages>
    80202a16:	e909                	bnez	a0,80202a28 <uvmmap+0x4a>
    80202a18:	0905                	addi	s2,s2,1
    80202a1a:	6785                	lui	a5,0x1
    80202a1c:	94be                	add	s1,s1,a5
	for (int i = 0; i < npages; ++i) {
    80202a1e:	fd391fe3          	bne	s2,s3,802029fc <uvmmap+0x1e>
    80202a22:	a021                	j	80202a2a <uvmmap+0x4c>
			return -1;
		}
	}
	return 0;
    80202a24:	4501                	li	a0,0
}
    80202a26:	8082                	ret
			return -1;
    80202a28:	557d                	li	a0,-1
}
    80202a2a:	70e2                	ld	ra,56(sp)
    80202a2c:	7442                	ld	s0,48(sp)
    80202a2e:	74a2                	ld	s1,40(sp)
    80202a30:	7902                	ld	s2,32(sp)
    80202a32:	69e2                	ld	s3,24(sp)
    80202a34:	6a42                	ld	s4,16(sp)
    80202a36:	6aa2                	ld	s5,8(sp)
    80202a38:	6121                	addi	sp,sp,64
    80202a3a:	8082                	ret

0000000080202a3c <uvmunmap>:

// Remove npages of mappings starting from va. va must be
// page-aligned. The mappings must exist.
// Optionally free the physical memory.
void uvmunmap(pagetable_t pagetable, uint64 va, uint64 npages, int do_free)
{
    80202a3c:	715d                	addi	sp,sp,-80
    80202a3e:	e486                	sd	ra,72(sp)
    80202a40:	e0a2                	sd	s0,64(sp)
    80202a42:	fc26                	sd	s1,56(sp)
    80202a44:	f84a                	sd	s2,48(sp)
    80202a46:	f44e                	sd	s3,40(sp)
    80202a48:	f052                	sd	s4,32(sp)
    80202a4a:	ec56                	sd	s5,24(sp)
    80202a4c:	e85a                	sd	s6,16(sp)
    80202a4e:	e45e                	sd	s7,8(sp)
    80202a50:	0880                	addi	s0,sp,80
	uint64 a;
	pte_t *pte;

	if ((va % PGSIZE) != 0)
    80202a52:	03459793          	slli	a5,a1,0x34
    80202a56:	e795                	bnez	a5,80202a82 <uvmunmap+0x46>
    80202a58:	8a2a                	mv	s4,a0
    80202a5a:	84ae                	mv	s1,a1
    80202a5c:	8b36                	mv	s6,a3
		panic("uvmunmap: not aligned");

	for (a = va; a < va + npages * PGSIZE; a += PGSIZE) {
    80202a5e:	0632                	slli	a2,a2,0xc
    80202a60:	00b609b3          	add	s3,a2,a1
		if ((pte = walk(pagetable, a, 0)) == 0)
			continue;
		if ((*pte & PTE_V) != 0) {
			if (PTE_FLAGS(*pte) == PTE_V)
    80202a64:	4b85                	li	s7,1
	for (a = va; a < va + npages * PGSIZE; a += PGSIZE) {
    80202a66:	6a85                	lui	s5,0x1
    80202a68:	0b35ec63          	bltu	a1,s3,80202b20 <uvmunmap+0xe4>
				kfree((void *)pa);
			}
		}
		*pte = 0;
	}
}
    80202a6c:	60a6                	ld	ra,72(sp)
    80202a6e:	6406                	ld	s0,64(sp)
    80202a70:	74e2                	ld	s1,56(sp)
    80202a72:	7942                	ld	s2,48(sp)
    80202a74:	79a2                	ld	s3,40(sp)
    80202a76:	7a02                	ld	s4,32(sp)
    80202a78:	6ae2                	ld	s5,24(sp)
    80202a7a:	6b42                	ld	s6,16(sp)
    80202a7c:	6ba2                	ld	s7,8(sp)
    80202a7e:	6161                	addi	sp,sp,80
    80202a80:	8082                	ret
		panic("uvmunmap: not aligned");
    80202a82:	00002097          	auipc	ra,0x2
    80202a86:	91c080e7          	jalr	-1764(ra) # 8020439e <procid>
    80202a8a:	84aa                	mv	s1,a0
    80202a8c:	00002097          	auipc	ra,0x2
    80202a90:	92c080e7          	jalr	-1748(ra) # 802043b8 <threadid>
    80202a94:	0a200813          	li	a6,162
    80202a98:	00006797          	auipc	a5,0x6
    80202a9c:	bf878793          	addi	a5,a5,-1032 # 80208690 <e_text+0x690>
    80202aa0:	872a                	mv	a4,a0
    80202aa2:	86a6                	mv	a3,s1
    80202aa4:	00005617          	auipc	a2,0x5
    80202aa8:	56c60613          	addi	a2,a2,1388 # 80208010 <e_text+0x10>
    80202aac:	45fd                	li	a1,31
    80202aae:	00006517          	auipc	a0,0x6
    80202ab2:	c8a50513          	addi	a0,a0,-886 # 80208738 <e_text+0x738>
    80202ab6:	00000097          	auipc	ra,0x0
    80202aba:	610080e7          	jalr	1552(ra) # 802030c6 <printf>
    80202abe:	00001097          	auipc	ra,0x1
    80202ac2:	820080e7          	jalr	-2016(ra) # 802032de <shutdown>
				panic("uvmunmap: not a leaf");
    80202ac6:	00002097          	auipc	ra,0x2
    80202aca:	8d8080e7          	jalr	-1832(ra) # 8020439e <procid>
    80202ace:	84aa                	mv	s1,a0
    80202ad0:	00002097          	auipc	ra,0x2
    80202ad4:	8e8080e7          	jalr	-1816(ra) # 802043b8 <threadid>
    80202ad8:	0a900813          	li	a6,169
    80202adc:	00006797          	auipc	a5,0x6
    80202ae0:	bb478793          	addi	a5,a5,-1100 # 80208690 <e_text+0x690>
    80202ae4:	872a                	mv	a4,a0
    80202ae6:	86a6                	mv	a3,s1
    80202ae8:	00005617          	auipc	a2,0x5
    80202aec:	52860613          	addi	a2,a2,1320 # 80208010 <e_text+0x10>
    80202af0:	45fd                	li	a1,31
    80202af2:	00006517          	auipc	a0,0x6
    80202af6:	c7e50513          	addi	a0,a0,-898 # 80208770 <e_text+0x770>
    80202afa:	00000097          	auipc	ra,0x0
    80202afe:	5cc080e7          	jalr	1484(ra) # 802030c6 <printf>
    80202b02:	00000097          	auipc	ra,0x0
    80202b06:	7dc080e7          	jalr	2012(ra) # 802032de <shutdown>
				uint64 pa = PTE2PA(*pte);
    80202b0a:	8129                	srli	a0,a0,0xa
				kfree((void *)pa);
    80202b0c:	0532                	slli	a0,a0,0xc
    80202b0e:	00001097          	auipc	ra,0x1
    80202b12:	6cc080e7          	jalr	1740(ra) # 802041da <kfree>
		*pte = 0;
    80202b16:	00093023          	sd	zero,0(s2)
	for (a = va; a < va + npages * PGSIZE; a += PGSIZE) {
    80202b1a:	94d6                	add	s1,s1,s5
    80202b1c:	f534f8e3          	bgeu	s1,s3,80202a6c <uvmunmap+0x30>
		if ((pte = walk(pagetable, a, 0)) == 0)
    80202b20:	4601                	li	a2,0
    80202b22:	85a6                	mv	a1,s1
    80202b24:	8552                	mv	a0,s4
    80202b26:	00000097          	auipc	ra,0x0
    80202b2a:	b34080e7          	jalr	-1228(ra) # 8020265a <walk>
    80202b2e:	892a                	mv	s2,a0
    80202b30:	d56d                	beqz	a0,80202b1a <uvmunmap+0xde>
		if ((*pte & PTE_V) != 0) {
    80202b32:	6108                	ld	a0,0(a0)
    80202b34:	00157793          	andi	a5,a0,1
    80202b38:	dff9                	beqz	a5,80202b16 <uvmunmap+0xda>
			if (PTE_FLAGS(*pte) == PTE_V)
    80202b3a:	3ff57793          	andi	a5,a0,1023
    80202b3e:	f97784e3          	beq	a5,s7,80202ac6 <uvmunmap+0x8a>
			if (do_free) {
    80202b42:	fc0b0ae3          	beqz	s6,80202b16 <uvmunmap+0xda>
    80202b46:	b7d1                	j	80202b0a <uvmunmap+0xce>

0000000080202b48 <uvmcreate>:

// create an empty user page table.
// returns 0 if out of memory.
pagetable_t uvmcreate()
{
    80202b48:	1101                	addi	sp,sp,-32
    80202b4a:	ec06                	sd	ra,24(sp)
    80202b4c:	e822                	sd	s0,16(sp)
    80202b4e:	e426                	sd	s1,8(sp)
    80202b50:	e04a                	sd	s2,0(sp)
    80202b52:	1000                	addi	s0,sp,32
	pagetable_t pagetable;
	pagetable = (pagetable_t)kalloc();
    80202b54:	00001097          	auipc	ra,0x1
    80202b58:	784080e7          	jalr	1924(ra) # 802042d8 <kalloc>
    80202b5c:	84aa                	mv	s1,a0
	if (pagetable == 0) {
    80202b5e:	cd1d                	beqz	a0,80202b9c <uvmcreate+0x54>
		errorf("uvmcreate: kalloc error");
		return 0;
	}
	memset(pagetable, 0, PGSIZE);
    80202b60:	6605                	lui	a2,0x1
    80202b62:	4581                	li	a1,0
    80202b64:	ffffd097          	auipc	ra,0xffffd
    80202b68:	574080e7          	jalr	1396(ra) # 802000d8 <memset>
	if (mappages(pagetable, TRAMPOLINE, PAGE_SIZE, (uint64)trampoline,
    80202b6c:	4729                	li	a4,10
    80202b6e:	00004697          	auipc	a3,0x4
    80202b72:	49268693          	addi	a3,a3,1170 # 80207000 <trampoline>
    80202b76:	6605                	lui	a2,0x1
    80202b78:	040005b7          	lui	a1,0x4000
    80202b7c:	15fd                	addi	a1,a1,-1
    80202b7e:	05b2                	slli	a1,a1,0xc
    80202b80:	8526                	mv	a0,s1
    80202b82:	00000097          	auipc	ra,0x0
    80202b86:	c1c080e7          	jalr	-996(ra) # 8020279e <mappages>
    80202b8a:	04054263          	bltz	a0,80202bce <uvmcreate+0x86>
		     PTE_R | PTE_X) < 0) {
		panic("mappages fail");
	}
	return pagetable;
}
    80202b8e:	8526                	mv	a0,s1
    80202b90:	60e2                	ld	ra,24(sp)
    80202b92:	6442                	ld	s0,16(sp)
    80202b94:	64a2                	ld	s1,8(sp)
    80202b96:	6902                	ld	s2,0(sp)
    80202b98:	6105                	addi	sp,sp,32
    80202b9a:	8082                	ret
		errorf("uvmcreate: kalloc error");
    80202b9c:	00002097          	auipc	ra,0x2
    80202ba0:	802080e7          	jalr	-2046(ra) # 8020439e <procid>
    80202ba4:	892a                	mv	s2,a0
    80202ba6:	00002097          	auipc	ra,0x2
    80202baa:	812080e7          	jalr	-2030(ra) # 802043b8 <threadid>
    80202bae:	872a                	mv	a4,a0
    80202bb0:	86ca                	mv	a3,s2
    80202bb2:	00005617          	auipc	a2,0x5
    80202bb6:	4de60613          	addi	a2,a2,1246 # 80208090 <e_text+0x90>
    80202bba:	45fd                	li	a1,31
    80202bbc:	00006517          	auipc	a0,0x6
    80202bc0:	bec50513          	addi	a0,a0,-1044 # 802087a8 <e_text+0x7a8>
    80202bc4:	00000097          	auipc	ra,0x0
    80202bc8:	502080e7          	jalr	1282(ra) # 802030c6 <printf>
		return 0;
    80202bcc:	b7c9                	j	80202b8e <uvmcreate+0x46>
		panic("mappages fail");
    80202bce:	00001097          	auipc	ra,0x1
    80202bd2:	7d0080e7          	jalr	2000(ra) # 8020439e <procid>
    80202bd6:	84aa                	mv	s1,a0
    80202bd8:	00001097          	auipc	ra,0x1
    80202bdc:	7e0080e7          	jalr	2016(ra) # 802043b8 <threadid>
    80202be0:	0c000813          	li	a6,192
    80202be4:	00006797          	auipc	a5,0x6
    80202be8:	aac78793          	addi	a5,a5,-1364 # 80208690 <e_text+0x690>
    80202bec:	872a                	mv	a4,a0
    80202bee:	86a6                	mv	a3,s1
    80202bf0:	00005617          	auipc	a2,0x5
    80202bf4:	42060613          	addi	a2,a2,1056 # 80208010 <e_text+0x10>
    80202bf8:	45fd                	li	a1,31
    80202bfa:	00006517          	auipc	a0,0x6
    80202bfe:	bde50513          	addi	a0,a0,-1058 # 802087d8 <e_text+0x7d8>
    80202c02:	00000097          	auipc	ra,0x0
    80202c06:	4c4080e7          	jalr	1220(ra) # 802030c6 <printf>
    80202c0a:	00000097          	auipc	ra,0x0
    80202c0e:	6d4080e7          	jalr	1748(ra) # 802032de <shutdown>

0000000080202c12 <freewalk>:

// Recursively free page-table pages.
// All leaf mappings must already have been removed.
void freewalk(pagetable_t pagetable)
{
    80202c12:	7179                	addi	sp,sp,-48
    80202c14:	f406                	sd	ra,40(sp)
    80202c16:	f022                	sd	s0,32(sp)
    80202c18:	ec26                	sd	s1,24(sp)
    80202c1a:	e84a                	sd	s2,16(sp)
    80202c1c:	e44e                	sd	s3,8(sp)
    80202c1e:	e052                	sd	s4,0(sp)
    80202c20:	1800                	addi	s0,sp,48
    80202c22:	8a2a                	mv	s4,a0
	// there are 2^9 = 512 PTEs in a page table.
	for (int i = 0; i < 512; i++) {
    80202c24:	84aa                	mv	s1,a0
    80202c26:	6905                	lui	s2,0x1
    80202c28:	992a                	add	s2,s2,a0
		pte_t pte = pagetable[i];
		if ((pte & PTE_V) && (pte & (PTE_R | PTE_W | PTE_X)) == 0) {
    80202c2a:	4985                	li	s3,1
    80202c2c:	a821                	j	80202c44 <freewalk+0x32>
			// this PTE points to a lower-level page table.
			uint64 child = PTE2PA(pte);
    80202c2e:	8129                	srli	a0,a0,0xa
			freewalk((pagetable_t)child);
    80202c30:	0532                	slli	a0,a0,0xc
    80202c32:	00000097          	auipc	ra,0x0
    80202c36:	fe0080e7          	jalr	-32(ra) # 80202c12 <freewalk>
			pagetable[i] = 0;
    80202c3a:	0004b023          	sd	zero,0(s1)
    80202c3e:	04a1                	addi	s1,s1,8
	for (int i = 0; i < 512; i++) {
    80202c40:	05248b63          	beq	s1,s2,80202c96 <freewalk+0x84>
		pte_t pte = pagetable[i];
    80202c44:	6088                	ld	a0,0(s1)
		if ((pte & PTE_V) && (pte & (PTE_R | PTE_W | PTE_X)) == 0) {
    80202c46:	00f57793          	andi	a5,a0,15
    80202c4a:	ff3782e3          	beq	a5,s3,80202c2e <freewalk+0x1c>
		} else if (pte & PTE_V) {
    80202c4e:	8905                	andi	a0,a0,1
    80202c50:	d57d                	beqz	a0,80202c3e <freewalk+0x2c>
			panic("freewalk: leaf");
    80202c52:	00001097          	auipc	ra,0x1
    80202c56:	74c080e7          	jalr	1868(ra) # 8020439e <procid>
    80202c5a:	84aa                	mv	s1,a0
    80202c5c:	00001097          	auipc	ra,0x1
    80202c60:	75c080e7          	jalr	1884(ra) # 802043b8 <threadid>
    80202c64:	0d200813          	li	a6,210
    80202c68:	00006797          	auipc	a5,0x6
    80202c6c:	a2878793          	addi	a5,a5,-1496 # 80208690 <e_text+0x690>
    80202c70:	872a                	mv	a4,a0
    80202c72:	86a6                	mv	a3,s1
    80202c74:	00005617          	auipc	a2,0x5
    80202c78:	39c60613          	addi	a2,a2,924 # 80208010 <e_text+0x10>
    80202c7c:	45fd                	li	a1,31
    80202c7e:	00006517          	auipc	a0,0x6
    80202c82:	b8a50513          	addi	a0,a0,-1142 # 80208808 <e_text+0x808>
    80202c86:	00000097          	auipc	ra,0x0
    80202c8a:	440080e7          	jalr	1088(ra) # 802030c6 <printf>
    80202c8e:	00000097          	auipc	ra,0x0
    80202c92:	650080e7          	jalr	1616(ra) # 802032de <shutdown>
		}
	}
	kfree((void *)pagetable);
    80202c96:	8552                	mv	a0,s4
    80202c98:	00001097          	auipc	ra,0x1
    80202c9c:	542080e7          	jalr	1346(ra) # 802041da <kfree>
}
    80202ca0:	70a2                	ld	ra,40(sp)
    80202ca2:	7402                	ld	s0,32(sp)
    80202ca4:	64e2                	ld	s1,24(sp)
    80202ca6:	6942                	ld	s2,16(sp)
    80202ca8:	69a2                	ld	s3,8(sp)
    80202caa:	6a02                	ld	s4,0(sp)
    80202cac:	6145                	addi	sp,sp,48
    80202cae:	8082                	ret

0000000080202cb0 <uvmfree>:
 * @brief Free user memory pages, then free page-table pages.
 *
 * @param max_page The max vaddr of user-space.
 */
void uvmfree(pagetable_t pagetable, uint64 max_page)
{
    80202cb0:	1101                	addi	sp,sp,-32
    80202cb2:	ec06                	sd	ra,24(sp)
    80202cb4:	e822                	sd	s0,16(sp)
    80202cb6:	e426                	sd	s1,8(sp)
    80202cb8:	1000                	addi	s0,sp,32
    80202cba:	84aa                	mv	s1,a0
	if (max_page > 0)
    80202cbc:	e999                	bnez	a1,80202cd2 <uvmfree+0x22>
		uvmunmap(pagetable, 0, max_page, 1);
	freewalk(pagetable);
    80202cbe:	8526                	mv	a0,s1
    80202cc0:	00000097          	auipc	ra,0x0
    80202cc4:	f52080e7          	jalr	-174(ra) # 80202c12 <freewalk>
}
    80202cc8:	60e2                	ld	ra,24(sp)
    80202cca:	6442                	ld	s0,16(sp)
    80202ccc:	64a2                	ld	s1,8(sp)
    80202cce:	6105                	addi	sp,sp,32
    80202cd0:	8082                	ret
		uvmunmap(pagetable, 0, max_page, 1);
    80202cd2:	4685                	li	a3,1
    80202cd4:	862e                	mv	a2,a1
    80202cd6:	4581                	li	a1,0
    80202cd8:	00000097          	auipc	ra,0x0
    80202cdc:	d64080e7          	jalr	-668(ra) # 80202a3c <uvmunmap>
    80202ce0:	bff9                	j	80202cbe <uvmfree+0xe>

0000000080202ce2 <uvmcopy>:

// Used in fork.
// Copy the pagetable page and all the user pages.
// Return 0 on success, -1 on error.
int uvmcopy(pagetable_t old, pagetable_t new, uint64 max_page)
{
    80202ce2:	715d                	addi	sp,sp,-80
    80202ce4:	e486                	sd	ra,72(sp)
    80202ce6:	e0a2                	sd	s0,64(sp)
    80202ce8:	fc26                	sd	s1,56(sp)
    80202cea:	f84a                	sd	s2,48(sp)
    80202cec:	f44e                	sd	s3,40(sp)
    80202cee:	f052                	sd	s4,32(sp)
    80202cf0:	ec56                	sd	s5,24(sp)
    80202cf2:	e85a                	sd	s6,16(sp)
    80202cf4:	e45e                	sd	s7,8(sp)
    80202cf6:	0880                	addi	s0,sp,80
	pte_t *pte;
	uint64 pa, i;
	uint flags;
	char *mem;

	for (i = 0; i < max_page * PAGE_SIZE; i += PGSIZE) {
    80202cf8:	00c61a93          	slli	s5,a2,0xc
    80202cfc:	080a8e63          	beqz	s5,80202d98 <uvmcopy+0xb6>
    80202d00:	8b2e                	mv	s6,a1
    80202d02:	8a2a                	mv	s4,a0
    80202d04:	4481                	li	s1,0
    80202d06:	a029                	j	80202d10 <uvmcopy+0x2e>
    80202d08:	6785                	lui	a5,0x1
    80202d0a:	94be                	add	s1,s1,a5
    80202d0c:	0754fa63          	bgeu	s1,s5,80202d80 <uvmcopy+0x9e>
		if ((pte = walk(old, i, 0)) == 0)
    80202d10:	4601                	li	a2,0
    80202d12:	85a6                	mv	a1,s1
    80202d14:	8552                	mv	a0,s4
    80202d16:	00000097          	auipc	ra,0x0
    80202d1a:	944080e7          	jalr	-1724(ra) # 8020265a <walk>
    80202d1e:	d56d                	beqz	a0,80202d08 <uvmcopy+0x26>
			continue;
		if ((*pte & PTE_V) == 0)
    80202d20:	6118                	ld	a4,0(a0)
    80202d22:	00177793          	andi	a5,a4,1
    80202d26:	d3ed                	beqz	a5,80202d08 <uvmcopy+0x26>
			continue;
		pa = PTE2PA(*pte);
    80202d28:	00a75793          	srli	a5,a4,0xa
    80202d2c:	00c79b93          	slli	s7,a5,0xc
		flags = PTE_FLAGS(*pte);
    80202d30:	3ff77913          	andi	s2,a4,1023
		if ((mem = kalloc()) == 0)
    80202d34:	00001097          	auipc	ra,0x1
    80202d38:	5a4080e7          	jalr	1444(ra) # 802042d8 <kalloc>
    80202d3c:	89aa                	mv	s3,a0
    80202d3e:	c515                	beqz	a0,80202d6a <uvmcopy+0x88>
			goto err;
		memmove(mem, (char *)pa, PGSIZE);
    80202d40:	6605                	lui	a2,0x1
    80202d42:	85de                	mv	a1,s7
    80202d44:	ffffd097          	auipc	ra,0xffffd
    80202d48:	400080e7          	jalr	1024(ra) # 80200144 <memmove>
		if (mappages(new, i, PGSIZE, (uint64)mem, flags) != 0) {
    80202d4c:	874a                	mv	a4,s2
    80202d4e:	86ce                	mv	a3,s3
    80202d50:	6605                	lui	a2,0x1
    80202d52:	85a6                	mv	a1,s1
    80202d54:	855a                	mv	a0,s6
    80202d56:	00000097          	auipc	ra,0x0
    80202d5a:	a48080e7          	jalr	-1464(ra) # 8020279e <mappages>
    80202d5e:	d54d                	beqz	a0,80202d08 <uvmcopy+0x26>
			kfree(mem);
    80202d60:	854e                	mv	a0,s3
    80202d62:	00001097          	auipc	ra,0x1
    80202d66:	478080e7          	jalr	1144(ra) # 802041da <kfree>
		}
	}
	return 0;

err:
	uvmunmap(new, 0, i / PGSIZE, 1);
    80202d6a:	4685                	li	a3,1
    80202d6c:	00c4d613          	srli	a2,s1,0xc
    80202d70:	4581                	li	a1,0
    80202d72:	855a                	mv	a0,s6
    80202d74:	00000097          	auipc	ra,0x0
    80202d78:	cc8080e7          	jalr	-824(ra) # 80202a3c <uvmunmap>
	return -1;
    80202d7c:	557d                	li	a0,-1
    80202d7e:	a011                	j	80202d82 <uvmcopy+0xa0>
	return 0;
    80202d80:	4501                	li	a0,0
}
    80202d82:	60a6                	ld	ra,72(sp)
    80202d84:	6406                	ld	s0,64(sp)
    80202d86:	74e2                	ld	s1,56(sp)
    80202d88:	7942                	ld	s2,48(sp)
    80202d8a:	79a2                	ld	s3,40(sp)
    80202d8c:	7a02                	ld	s4,32(sp)
    80202d8e:	6ae2                	ld	s5,24(sp)
    80202d90:	6b42                	ld	s6,16(sp)
    80202d92:	6ba2                	ld	s7,8(sp)
    80202d94:	6161                	addi	sp,sp,80
    80202d96:	8082                	ret
	return 0;
    80202d98:	4501                	li	a0,0
    80202d9a:	b7e5                	j	80202d82 <uvmcopy+0xa0>

0000000080202d9c <copyout>:
// Return 0 on success, -1 on error.
int copyout(pagetable_t pagetable, uint64 dstva, char *src, uint64 len)
{
	uint64 n, va0, pa0;

	while (len > 0) {
    80202d9c:	c6bd                	beqz	a3,80202e0a <copyout+0x6e>
{
    80202d9e:	715d                	addi	sp,sp,-80
    80202da0:	e486                	sd	ra,72(sp)
    80202da2:	e0a2                	sd	s0,64(sp)
    80202da4:	fc26                	sd	s1,56(sp)
    80202da6:	f84a                	sd	s2,48(sp)
    80202da8:	f44e                	sd	s3,40(sp)
    80202daa:	f052                	sd	s4,32(sp)
    80202dac:	ec56                	sd	s5,24(sp)
    80202dae:	e85a                	sd	s6,16(sp)
    80202db0:	e45e                	sd	s7,8(sp)
    80202db2:	e062                	sd	s8,0(sp)
    80202db4:	0880                	addi	s0,sp,80
    80202db6:	8baa                	mv	s7,a0
    80202db8:	8a2e                	mv	s4,a1
    80202dba:	8ab2                	mv	s5,a2
